#include "hi_asm_define.h"
	.arch armv7-a
	.fpu softvfp
	.eabi_attribute 20, 1
	.eabi_attribute 21, 1
	.eabi_attribute 23, 3
	.eabi_attribute 24, 1
	.eabi_attribute 25, 1
	.eabi_attribute 26, 2
	.eabi_attribute 30, 2
	.eabi_attribute 34, 0
	.eabi_attribute 18, 4
	.file	"hevc.c"
	.text
	.align	2
	.type	HEVC_ComparePicByPocAsc, %function
HEVC_ComparePicByPocAsc:
	UNWIND(.fnstart)
	@ args = 0, pretend = 0, frame = 0
	@ frame_needed = 1, uses_anonymous_args = 0
	UNWIND(.movsp ip)
	mov	ip, sp
	stmfd	sp!, {fp, ip, lr, pc}
	UNWIND(.pad #4)
	UNWIND(.save {fp, ip, lr})
	UNWIND(.setfp fp, ip, #-4)
	sub	fp, ip, #4
	ldr	r2, [r0]
	ldr	r3, [r1]
	ldr	r2, [r2, #8]
	ldr	r3, [r3, #8]
	cmp	r2, r3
	blt	.L3
	movgt	r0, #1
	movle	r0, #0
	ldmfd	sp, {fp, sp, pc}
.L3:
	mvn	r0, #0
	ldmfd	sp, {fp, sp, pc}
	UNWIND(.fnend)
	.size	HEVC_ComparePicByPocAsc, .-HEVC_ComparePicByPocAsc
	.align	2
	.type	HEVC_CheckThatAllRefPicsAreAvailable.part.9, %function
HEVC_CheckThatAllRefPicsAreAvailable.part.9:
	UNWIND(.fnstart)
	@ args = 0, pretend = 0, frame = 24
	@ frame_needed = 1, uses_anonymous_args = 0
	UNWIND(.movsp ip)
	mov	ip, sp
	stmfd	sp!, {r4, r5, r6, r7, r8, r9, r10, fp, ip, lr, pc}
	UNWIND(.pad #4)
	UNWIND(.save {r4, r5, r6, r7, r8, r9, r10, fp, ip, lr})
	UNWIND(.setfp fp, ip, #-4)
	sub	fp, ip, #4
	UNWIND(.pad #28)
	sub	sp, sp, #28
	add	r7, r0, #4096
	ldr	r2, [r0, #2380]
	mov	ip, #1888
	ldr	r3, [r7, #164]
	movw	r4, #12660
	str	r1, [fp, #-64]
	ldr	r1, [r7, #1064]
	mla	ip, ip, r3, r2
	ldr	r3, [r7, #1060]
	ldr	lr, [r0, #2376]
	mov	r2, #1
	add	r3, r1, r3
	str	r3, [fp, #-60]
	mov	r5, r3
	ldr	r3, [r7, #1068]
	ldr	r1, [ip, #32]
	cmp	r5, r3
	mla	r1, r4, r1, lr
	ldr	r10, [r1, #116]
	mov	r10, r2, asl r10
	bcs	.L6
	add	r6, r5, #1312
	add	r9, r5, #5120
	add	r6, r6, #2
	add	r9, r9, #48
	ldr	r1, [r0, #2600]
	add	r3, r3, #5120
	sub	r10, r10, #1
	add	r6, r0, r6, lsl #2
	add	r9, r0, r9
	add	r3, r3, #48
	mov	r2, #0
	add	r3, r0, r3
	str	r2, [fp, #-52]
	str	r3, [fp, #-48]
	str	r2, [fp, #-56]
.L7:
	cmp	r1, #0
	beq	.L13
	add	r3, r0, #2608
	mov	r8, #0
	add	r3, r3, #12
	mov	r2, r8
	ldr	r5, [r6, #-944]
	b	.L10
.L65:
	cmp	lr, #0
	beq	.L9
	ldr	r4, [ip, #8]
	ldr	lr, [r6]
	cmp	r4, lr
	beq	.L63
.L9:
	add	r2, r2, #1
	add	r3, r3, #4
	cmp	r2, r1
	beq	.L64
.L10:
	ldr	ip, [r3]
	cmp	r5, #0
	ldr	lr, [ip, #60]
	bne	.L65
	cmp	lr, #0
	beq	.L9
	ldr	r4, [r6]
	ldr	lr, [ip, #8]
	eor	lr, lr, r4
	tst	lr, r10
	bne	.L9
.L63:
	ldrb	lr, [ip, #1]	@ zero_extendqisi2
	cmp	lr, #0
	beq	.L9
	ldr	lr, [r0, #2416]
	ldr	r4, [ip, #16]
	ldr	ip, [lr, #4]
	cmp	r4, ip
	movls	r8, #1
	bls	.L9
	ldr	ip, [lr, #644]
	add	r2, r2, #1
	add	r3, r3, #4
	cmp	ip, #1
	movne	r8, #1
	cmp	r2, r1
	bne	.L10
.L64:
	cmp	r8, #0
	beq	.L13
.L11:
	ldr	r3, [fp, #-48]
	add	r9, r9, #1
	add	r6, r6, #4
	cmp	r9, r3
	bne	.L7
	ldr	r3, [fp, #-60]
	cmp	r3, #0
	beq	.L15
.L14:
	add	r5, r0, #5184
	add	r9, r0, #5120
	ldr	r10, [fp, #-60]
	add	r5, r5, #4
	ldr	ip, [fp, #-56]
	add	r9, r9, #48
	mov	r8, #0
.L19:
	cmp	r1, #0
	beq	.L20
	add	r4, r0, #2608
	mov	r6, #0
	add	r4, r4, #8
	mov	r3, r6
	str	ip, [fp, #-48]
	b	.L17
.L16:
	add	r3, r3, #1
	cmp	r3, r1
	beq	.L66
.L17:
	ldr	r2, [r4, #4]!
	ldr	lr, [r2, #60]
	cmp	lr, #0
	bne	.L16
	ldr	ip, [r5]
	ldr	lr, [r7, #140]
	add	lr, lr, ip
	ldr	ip, [r2, #8]
	cmp	ip, lr
	bne	.L16
	ldrb	lr, [r2, #1]	@ zero_extendqisi2
	cmp	lr, #0
	beq	.L16
	ldr	lr, [r0, #2416]
	ldr	r2, [r2, #16]
	ldr	ip, [lr, #4]
	cmp	r2, ip
	movls	r6, #1
	bls	.L16
	ldr	r2, [lr, #644]
	add	r3, r3, #1
	cmp	r2, #1
	movne	r6, #1
	cmp	r3, r1
	bne	.L17
.L66:
	cmp	r6, #0
	ldr	ip, [fp, #-48]
	beq	.L20
.L18:
	add	r8, r8, #1
	add	r5, r5, #4
	cmp	r10, r8
	add	r9, r9, #1
	bhi	.L19
	str	ip, [fp, #-56]
.L15:
	ldr	r3, [fp, #-56]
	cmp	r3, #0
	beq	.L28
	ldr	r3, [fp, #-64]
	mov	r0, #0
	ldr	r2, [fp, #-52]
	str	r2, [r3]
	sub	sp, fp, #40
	ldmfd	sp, {r4, r5, r6, r7, r8, r9, r10, fp, sp, pc}
.L20:
	ldr	r2, [r7, #160]
	ldr	r3, [r7, #140]
	ldr	lr, [r5]
	add	r2, r0, r2, lsl #2
	add	r3, r3, lr
	ldr	r2, [r2, #228]
	cmp	r3, r2
	blt	.L18
	ldrb	r2, [r9]	@ zero_extendqisi2
	cmp	r2, #0
	ldr	r2, [fp, #-52]
	movne	ip, #1
	movne	r2, r3
	str	r2, [fp, #-52]
	b	.L18
.L13:
	ldr	r2, [r7, #160]
	ldr	r3, [r7, #140]
	ldr	ip, [r6, #-68]
	add	r2, r0, r2, lsl #2
	add	r3, r3, ip
	ldr	r2, [r2, #228]
	cmp	r3, r2
	blt	.L11
	ldrb	r2, [r9]	@ zero_extendqisi2
	cmp	r2, #0
	ldr	r2, [fp, #-52]
	movne	r2, r3
	ldr	r3, [fp, #-56]
	str	r2, [fp, #-52]
	movne	r3, #1
	str	r3, [fp, #-56]
	b	.L11
.L28:
	mov	r0, #1
	sub	sp, fp, #40
	ldmfd	sp, {r4, r5, r6, r7, r8, r9, r10, fp, sp, pc}
.L6:
	ldr	r3, [fp, #-60]
	cmp	r3, #0
	beq	.L28
	mov	r3, #0
	ldr	r1, [r0, #2600]
	str	r3, [fp, #-52]
	str	r3, [fp, #-56]
	b	.L14
	UNWIND(.fnend)
	.size	HEVC_CheckThatAllRefPicsAreAvailable.part.9, .-HEVC_CheckThatAllRefPicsAreAvailable.part.9
	.align	2
	.type	HEVC_SetFrmRepeatCount.part.10, %function
HEVC_SetFrmRepeatCount.part.10:
	UNWIND(.fnstart)
	@ args = 0, pretend = 0, frame = 0
	@ frame_needed = 1, uses_anonymous_args = 0
	UNWIND(.movsp ip)
	mov	ip, sp
	stmfd	sp!, {fp, ip, lr, pc}
	UNWIND(.pad #4)
	UNWIND(.save {fp, ip, lr})
	UNWIND(.setfp fp, ip, #-4)
	sub	fp, ip, #4
	ldr	ip, [r0, #292]
	ldr	r2, [r0, #2596]
	ldr	r3, [r0, #288]
	add	r2, r2, ip
	add	ip, r2, #1
	cmp	r3, ip
	movcc	r3, #0
	strcc	r3, [r1, #16]
	ldmccfd	sp, {fp, sp, pc}
	sub	r3, r3, #1
	rsb	r3, r2, r3
	cmp	r3, #1
	movhi	r3, #2
	movls	r3, #1
	strhi	r3, [r1, #16]
	strls	r3, [r1, #16]
	ldrhi	r3, [r0, #292]
	ldrls	r3, [r0, #292]
	addhi	r3, r3, #2
	addls	r3, r3, #1
	str	r3, [r0, #292]
	ldmfd	sp, {fp, sp, pc}
	UNWIND(.fnend)
	.size	HEVC_SetFrmRepeatCount.part.10, .-HEVC_SetFrmRepeatCount.part.10
	.align	2
	.type	HEVC_OutputFrame.isra.11, %function
HEVC_OutputFrame.isra.11:
	UNWIND(.fnstart)
	@ args = 0, pretend = 0, frame = 0
	@ frame_needed = 1, uses_anonymous_args = 0
	UNWIND(.movsp ip)
	mov	ip, sp
	stmfd	sp!, {r4, r5, r6, fp, ip, lr, pc}
	UNWIND(.pad #4)
	UNWIND(.save {r4, r5, r6, fp, ip, lr})
	UNWIND(.setfp fp, ip, #-4)
	sub	fp, ip, #4
	UNWIND(.pad #12)
	sub	sp, sp, #12
	mov	r4, r0
	mov	r5, r1
	ldr	r0, [r0, #252]
	ldr	r1, [r1]
	bl	FSP_GetFsImagePtr
	subs	r6, r0, #0
	beq	.L77
	mov	r2, #1
	ldr	r1, [r5]
	ldr	r0, [r4, #252]
	bl	FSP_SetDisplay
	add	r3, r4, #5568
	ldr	r0, [r4, #252]
	add	r3, r3, #16
	str	r6, [sp]
	mov	r2, r4
	mov	r1, #16
	bl	InsertImgToVoQueue
	cmp	r0, #1
	bne	.L78
	ldr	r3, [r4, #2416]
	ldr	r3, [r3, #620]
	add	r3, r3, #2032
	add	r3, r3, #15
	cmp	r3, #4096
	movcc	r3, #0
	strcc	r3, [r6, #16]
	bcs	.L79
.L76:
	ldr	r2, [r4, #300]
	mov	r0, #0
	ldr	r3, [r4, #292]
	add	r2, r2, #1
	str	r2, [r4, #300]
	add	r3, r3, #1
	str	r3, [r4, #292]
.L73:
	sub	sp, fp, #24
	ldmfd	sp, {r4, r5, r6, fp, sp, pc}
.L79:
	mov	r1, r6
	mov	r0, r4
	bl	HEVC_SetFrmRepeatCount.part.10
	b	.L76
.L78:
	ldr	r2, .L80
	mov	r0, #1
	ldr	r1, .L80+4
	bl	dprint_vfmw
	ldr	r0, [r4, #252]
	ldr	r1, [r5]
	mov	r2, #0
	bl	FSP_SetDisplay
	mvn	r0, #0
	b	.L73
.L77:
	ldr	r2, .L80
	ldr	r1, .L80+8
	bl	dprint_vfmw
	mvn	r0, #0
	b	.L73
.L81:
	.align	2
.L80:
	.word	.LANCHOR0
	.word	.LC3
	.word	.LC2
	UNWIND(.fnend)
	.size	HEVC_OutputFrame.isra.11, .-HEVC_OutputFrame.isra.11
	.align	2
	.global	HEVC_Sei_ParsePts_Init
	.type	HEVC_Sei_ParsePts_Init, %function
HEVC_Sei_ParsePts_Init:
	UNWIND(.fnstart)
	@ args = 0, pretend = 0, frame = 0
	@ frame_needed = 1, uses_anonymous_args = 0
	UNWIND(.movsp ip)
	mov	ip, sp
	stmfd	sp!, {r4, r5, fp, ip, lr, pc}
	UNWIND(.pad #4)
	UNWIND(.save {r4, r5, fp, ip, lr})
	UNWIND(.setfp fp, ip, #-4)
	sub	fp, ip, #4
	ldr	r3, .L83
	mov	r4, r0
	add	r0, r0, #11072
	mov	r2, #56
	mov	r1, #0
	add	r0, r0, r2
	ldr	r3, [r3, #48]
	blx	r3
	add	r3, r4, #2912
	mov	r0, #0
	mov	r1, #0
	mov	r2, #0
	strd	r0, [r3, #32]
	strd	r0, [r3, #8]
	strd	r0, [r3, #16]
	strd	r0, [r3, #24]
	str	r2, [r4, #2900]
	ldmfd	sp, {r4, r5, fp, sp, pc}
.L84:
	.align	2
.L83:
	.word	vfmw_Osal_Func_Ptr_S
	UNWIND(.fnend)
	.size	HEVC_Sei_ParsePts_Init, .-HEVC_Sei_ParsePts_Init
	.align	2
	.global	HEVC_Sei_Get_Dpb_Output_Time
	.type	HEVC_Sei_Get_Dpb_Output_Time, %function
HEVC_Sei_Get_Dpb_Output_Time:
	UNWIND(.fnstart)
	@ args = 0, pretend = 0, frame = 0
	@ frame_needed = 1, uses_anonymous_args = 0
	UNWIND(.movsp ip)
	mov	ip, sp
	stmfd	sp!, {r4, r5, r6, r7, r8, r9, fp, ip, lr, pc}
	UNWIND(.pad #4)
	UNWIND(.save {r4, r5, r6, r7, r8, r9, fp, ip, lr})
	UNWIND(.setfp fp, ip, #-4)
	sub	fp, ip, #4
	UNWIND(.pad #8)
	sub	sp, sp, #8
	add	r3, r0, #4096
	ldr	lr, [r0, #164]
	ldr	ip, [r3, #164]
	cmp	ip, #0
	blt	.L87
	cmp	ip, lr
	bge	.L87
	ldr	r3, [r0, #2380]
	mov	r2, #1888
	mla	ip, r2, ip, r3
	ldr	lr, [ip, #32]
	ldr	ip, [r0, #160]
	cmp	lr, #0
	blt	.L91
	cmp	lr, ip
	bge	.L91
	ldr	r2, [r0, #2376]
	movw	r4, #12660
	ldr	r3, [r1, #36]
	add	ip, r0, #8192
	mla	lr, r4, lr, r2
	str	r3, [ip, #2948]
	ldr	r2, [r1, #40]
	ldr	r3, [ip, #2940]
	str	r2, [ip, #2952]
	cmp	r3, #1
	ldr	r3, [lr, #52]
	add	r3, r3, #90
	ldrb	r6, [lr, r3, asl #2]	@ zero_extendqisi2
	beq	.L99
	ldrb	r3, [ip, #2937]	@ zero_extendqisi2
	cmp	r3, #0
	beq	.L95
	ldrb	r3, [r0, #2896]	@ zero_extendqisi2
	add	lr, r0, #2912
	cmp	r3, #0
	beq	.L96
	ldrd	r2, [lr, #16]
	mov	r8, r2
	mov	r9, r3
.L97:
	ldr	r4, [r0, #2912]
	mov	r5, #0
	adds	r2, r2, r4
	adc	r3, r3, r5
	cmp	r2, r8
	sbcs	r7, r3, r9
	strd	r2, [lr, #32]
	strd	r2, [lr, #8]
	bge	.L94
	adds	r2, r4, r8
	adc	r3, r5, r9
	strd	r2, [lr, #32]
	strd	r2, [lr, #8]
	b	.L94
.L91:
	ldr	r3, [r0, #252]
	movw	r2, #2625
	str	ip, [sp, #4]
	mov	r0, #0
	str	lr, [sp]
	ldr	r1, .L101
	bl	dprint_vfmw
	sub	sp, fp, #36
	ldmfd	sp, {r4, r5, r6, r7, r8, r9, fp, sp, pc}
.L87:
	ldr	r3, [r0, #252]
	movw	r2, #2615
	str	lr, [sp, #4]
	mov	r0, #0
	str	ip, [sp]
	ldr	r1, .L101+4
	bl	dprint_vfmw
	sub	sp, fp, #36
	ldmfd	sp, {r4, r5, r6, r7, r8, r9, fp, sp, pc}
.L95:
	add	lr, r0, #2912
	ldr	r4, [r0, #2912]
	ldrd	r2, [lr, #8]
	adds	r2, r2, r4
	adc	r3, r3, #0
	strd	r2, [lr, #32]
.L94:
	add	r7, r0, #11136
	strd	r2, [lr, #24]
	mov	lr, #0
	strb	lr, [ip, #2937]
	ldrd	r4, [r7, #24]
	strd	r4, [r7, #40]
	ldrb	r1, [r1, #2]	@ zero_extendqisi2
	cmp	r1, lr
	ldr	r1, [r0, #2916]
	bne	.L100
	adds	r2, r2, r1
	adc	r3, r3, #0
	subs	r2, r2, r6
	sbc	r3, r3, #0
	strd	r2, [r7, #24]
	sub	sp, fp, #36
	ldmfd	sp, {r4, r5, r6, r7, r8, r9, fp, sp, pc}
.L100:
	adds	r2, r2, r1
	adc	r3, r3, #0
	movs	r3, r3, asr #1
	mov	r2, r2, rrx
	subs	r2, r2, r6
	sbc	r3, r3, #0
	strd	r2, [r7, #24]
	sub	sp, fp, #36
	ldmfd	sp, {r4, r5, r6, r7, r8, r9, fp, sp, pc}
.L99:
	ldr	r2, [r0, #2900]
	add	lr, r0, #2912
	mov	r3, r2, asr #31
	strd	r2, [lr, #32]
	strd	r2, [lr, #8]
	b	.L94
.L96:
	ldrd	r2, [lr, #8]
	ldrd	r8, [lr, #16]
	b	.L97
.L102:
	.align	2
.L101:
	.word	.LC5
	.word	.LC4
	UNWIND(.fnend)
	.size	HEVC_Sei_Get_Dpb_Output_Time, .-HEVC_Sei_Get_Dpb_Output_Time
	.align	2
	.global	HEVC_Get_Last_IDR_Frame_Info
	.type	HEVC_Get_Last_IDR_Frame_Info, %function
HEVC_Get_Last_IDR_Frame_Info:
	UNWIND(.fnstart)
	@ args = 0, pretend = 0, frame = 0
	@ frame_needed = 1, uses_anonymous_args = 0
	UNWIND(.movsp ip)
	mov	ip, sp
	stmfd	sp!, {r4, r5, fp, ip, lr, pc}
	UNWIND(.pad #4)
	UNWIND(.save {r4, r5, fp, ip, lr})
	UNWIND(.setfp fp, ip, #-4)
	sub	fp, ip, #4
	sub	r3, r1, #19
	cmp	r3, #1
	bls	.L107
.L104:
	sub	r1, r1, #6
	cmp	r1, #3
	addhi	r0, r0, #2912
	ldrhid	r2, [r0, #32]
	strhid	r2, [r0, #16]
	ldmfd	sp, {r4, r5, fp, sp, pc}
.L107:
	ldr	ip, [r0, #2416]
	mvn	r3, #0
	mvn	r2, #0
	ldrd	r4, [ip, #64]
	cmp	r5, r3
	cmpeq	r4, r2
	beq	.L105
	add	r2, r0, #11136
	movw	r3, #11152
	strd	r4, [r0, r3]
	movw	ip, #11168
	ldrd	r4, [r2, #24]
	mov	r3, r2
	strd	r4, [r0, ip]
	strd	r4, [r3, #40]
.L105:
	add	r3, r0, #8192
	mov	r2, #1
	strb	r2, [r3, #2936]
	b	.L104
	UNWIND(.fnend)
	.size	HEVC_Get_Last_IDR_Frame_Info, .-HEVC_Get_Last_IDR_Frame_Info
	.global	__aeabi_uidivmod
	.global	__aeabi_uidiv
	.align	2
	.global	HEVC_Sei_Get_Frame_Pts
	.type	HEVC_Sei_Get_Frame_Pts, %function
HEVC_Sei_Get_Frame_Pts:
	UNWIND(.fnstart)
	@ args = 0, pretend = 0, frame = 16
	@ frame_needed = 1, uses_anonymous_args = 0
	UNWIND(.movsp ip)
	mov	ip, sp
	stmfd	sp!, {r4, r5, r6, r7, r8, r9, r10, fp, ip, lr, pc}
	UNWIND(.pad #4)
	UNWIND(.save {r4, r5, r6, r7, r8, r9, r10, fp, ip, lr})
	UNWIND(.setfp fp, ip, #-4)
	sub	fp, ip, #4
	UNWIND(.pad #20)
	sub	sp, sp, #20
	add	r2, r0, #8192
	add	r3, r0, #11136
	mov	r4, r0
	movw	r0, #11152
	ldr	r5, [r2, #2948]
	ldr	r10, [r2, #2952]
	movw	r1, #11168
	ldrd	r6, [r3, #24]
	cmp	r5, #0
	ldrd	r2, [r4, r0]
	strd	r2, [fp, #-52]
	ldrd	r2, [r4, r1]
	strd	r2, [fp, #-60]
	beq	.L111
	mov	r9, r5
	mov	r0, r10
	b	.L110
.L112:
	mov	r9, r1
.L110:
	mov	r1, r9
	bl	__aeabi_uidivmod
	mov	r0, r9
	cmp	r1, #0
	bne	.L112
.L109:
	ldrd	r2, [fp, #-60]
	mov	r1, r9
	mov	r0, r5
	mov	r8, #1000
	subs	r2, r6, r2
	add	r4, r4, #4160
	mul	r6, r8, r2
	bl	__aeabi_uidiv
	mov	r1, r9
	mul	r6, r0, r6
	mov	r0, r10
	bl	__aeabi_uidiv
	mov	r1, r0
	mov	r0, r6
	bl	__aeabi_uidiv
	ldrd	r2, [fp, #-52]
	adds	r2, r2, r0
	adc	r3, r3, #0
	mov	r0, r2
	mov	r1, r3
	strd	r0, [r4, #8]
	sub	sp, fp, #40
	ldmfd	sp, {r4, r5, r6, r7, r8, r9, r10, fp, sp, pc}
.L111:
	mov	r9, r10
	b	.L109
	UNWIND(.fnend)
	.size	HEVC_Sei_Get_Frame_Pts, .-HEVC_Sei_Get_Frame_Pts
	.align	2
	.global	HEVC_InitSigLastScan
	.type	HEVC_InitSigLastScan, %function
HEVC_InitSigLastScan:
	UNWIND(.fnstart)
	@ args = 16, pretend = 0, frame = 24
	@ frame_needed = 1, uses_anonymous_args = 0
	UNWIND(.movsp ip)
	mov	ip, sp
	stmfd	sp!, {r4, r5, r6, r7, r8, r9, r10, fp, ip, lr, pc}
	UNWIND(.pad #4)
	UNWIND(.save {r4, r5, r6, r7, r8, r9, r10, fp, ip, lr})
	UNWIND(.setfp fp, ip, #-4)
	sub	fp, ip, #4
	UNWIND(.pad #28)
	sub	sp, sp, #28
	ldr	r4, [fp, #8]
	str	r0, [fp, #-48]
	cmp	r4, #15
	ldr	r6, [fp, #4]
	bgt	.L114
	cmp	r4, #8
	mul	r9, r4, r4
	beq	.L147
	cmp	r9, #0
	movne	r10, r6
	beq	.L114
.L116:
	mov	r5, #0
	rsb	r7, r4, #1
	mov	r8, r5
.L122:
	cmp	r4, r8
	bgt	.L134
	rsb	lr, r4, r8
	sub	r2, r4, #1
	add	lr, lr, #1
.L123:
	cmp	r2, #0
	cmpge	r4, lr
	ble	.L120
	mla	r0, r2, r4, lr
	add	ip, r10, r5, lsl #2
	mov	r1, r5
.L121:
	add	r1, r1, #1
	sub	r2, r2, #1
	rsb	r3, r5, r1
	str	r0, [ip], #4
	add	r3, r3, lr
	add	r0, r0, r7
	cmp	r2, #0
	cmpge	r4, r3
	bgt	.L121
	mov	r5, r1
.L120:
	cmp	r9, r5
	add	r8, r8, #1
	bhi	.L122
.L114:
	cmp	r4, #4
	ble	.L113
	mov	r3, r4, asr #2
	ldr	r1, [fp, #-48]
	str	r3, [fp, #-60]
	mov	r2, r3
	add	r3, r1, r3
	mul	r2, r2, r2
	mov	r0, r2
	str	r2, [fp, #-56]
	cmp	r0, #0
	ldrsb	r2, [r3, #12]
	add	r2, r2, #1
	beq	.L113
	add	r3, r1, #352
.L118:
	rsb	r5, r4, #1
	mov	r2, r2, asl #14
	str	r3, [fp, #-52]
	mov	r3, #0
	str	r2, [fp, #-64]
	str	r3, [fp, #-48]
.L132:
	ldr	r3, .L148
	cmp	r4, #32
	ldr	r1, [fp, #-48]
	mov	r8, #0
	ldr	r2, [fp, #-64]
	ldr	r3, [r3]
	add	r2, r2, r1
	ldr	r9, [fp, #-60]
	ldr	r7, [r3, r2, asl #2]
	ldreq	r3, [fp, #-52]
	mov	r1, r9
	ldreq	r7, [r3]
	mov	r0, r7
	bl	__aeabi_uidiv
	ldr	ip, [fp, #-48]
	mov	r3, r8
	mov	r2, r8
	mov	lr, r8
	mov	r10, ip, asl #4
	mla	r1, r4, r0, r7
	mls	r1, r9, r0, r1
	mov	r9, r1, asl #2
.L126:
	cmp	lr, #3
	mvn	r1, r2
	mov	r1, r1, lsr #31
	movgt	r1, #0
	cmp	r1, #0
	beq	.L127
	mla	r1, r2, r4, lr
	add	r0, r3, r10
	rsb	lr, r3, lr
	add	r0, r6, r0, lsl #2
	add	r1, r1, r9
.L128:
	add	r3, r3, #1
	sub	r2, r2, #1
	add	r7, lr, r3
	str	r1, [r0], #4
	cmp	r7, #3
	mvn	ip, r2
	mov	ip, ip, lsr #31
	add	r1, r1, r5
	movgt	ip, #0
	cmp	ip, #0
	bne	.L128
.L127:
	cmp	r3, #15
	add	r8, r8, #1
	bhi	.L129
	cmp	r8, #3
	movle	r2, r8
	movle	lr, #0
	subgt	lr, r8, #3
	movgt	r2, #3
	b	.L126
.L129:
	ldr	r2, [fp, #-52]
	ldr	r3, [fp, #-48]
	add	r2, r2, #4
	str	r2, [fp, #-52]
	ldr	r2, [fp, #-56]
	add	r3, r3, #1
	str	r3, [fp, #-48]
	cmp	r3, r2
	bne	.L132
.L113:
	sub	sp, fp, #40
	ldmfd	sp, {r4, r5, r6, r7, r8, r9, r10, fp, sp, pc}
.L134:
	mov	r2, r8
	mov	lr, #0
	b	.L123
.L147:
	add	r3, r0, #352
	cmp	r9, #0
	mov	r10, r3
	bne	.L116
	ldr	r2, [fp, #-48]
	mov	r1, #2
	str	r1, [fp, #-60]
	mov	r1, #4
	str	r1, [fp, #-56]
	ldrsb	r2, [r2, #14]
	add	r2, r2, #1
	b	.L118
.L149:
	.align	2
.L148:
	.word	.LANCHOR1
	UNWIND(.fnend)
	.size	HEVC_InitSigLastScan, .-HEVC_InitSigLastScan
	.align	2
	.global	HEVC_InitScalingOrderTable
	.type	HEVC_InitScalingOrderTable, %function
HEVC_InitScalingOrderTable:
	UNWIND(.fnstart)
	@ args = 0, pretend = 0, frame = 0
	@ frame_needed = 1, uses_anonymous_args = 0
	UNWIND(.movsp ip)
	mov	ip, sp
	stmfd	sp!, {r4, r5, r6, r7, fp, ip, lr, pc}
	UNWIND(.pad #4)
	UNWIND(.save {r4, r5, r6, r7, fp, ip, lr})
	UNWIND(.setfp fp, ip, #-4)
	sub	fp, ip, #4
	UNWIND(.pad #16)
	sub	sp, sp, #16
	add	r3, r0, #11
	add	r1, r0, #140
	mov	r6, r0
	mvn	r2, #0
.L151:
	strb	r2, [r3, #1]!
	cmp	r3, r1
	bne	.L151
	ldr	r7, .L155
	mov	r2, #0
	mov	r3, #2
	mov	r4, r2
	mov	r5, r3
	strb	r2, [r6, #16]
	strb	r3, [r6, #28]
	mov	r2, #1
	mov	r3, #3
	strb	r2, [r6, #20]
	strb	r3, [r6, #44]
	mov	r3, #4
	strb	r3, [r6, #76]
.L152:
	ldr	r1, [r7]
	mov	r3, #0
	str	r4, [sp, #12]
	mov	r2, r3
	add	r1, r1, r4, lsl #16
	str	r5, [sp, #8]
	str	r5, [sp, #4]
	add	r4, r4, #1
	str	r1, [sp]
	mov	r0, r6
	mov	r1, r3
	mov	r5, r5, asl #1
	bl	HEVC_InitSigLastScan
	cmp	r4, #7
	bne	.L152
	sub	sp, fp, #28
	ldmfd	sp, {r4, r5, r6, r7, fp, sp, pc}
.L156:
	.align	2
.L155:
	.word	.LANCHOR1
	UNWIND(.fnend)
	.size	HEVC_InitScalingOrderTable, .-HEVC_InitScalingOrderTable
	.global	__aeabi_idiv
	.align	2
	.global	HEVC_GetDar
	.type	HEVC_GetDar, %function
HEVC_GetDar:
	UNWIND(.fnstart)
	@ args = 4, pretend = 0, frame = 0
	@ frame_needed = 1, uses_anonymous_args = 0
	UNWIND(.movsp ip)
	mov	ip, sp
	stmfd	sp!, {r4, r5, fp, ip, lr, pc}
	UNWIND(.pad #4)
	UNWIND(.save {r4, r5, fp, ip, lr})
	UNWIND(.setfp fp, ip, #-4)
	sub	fp, ip, #4
	cmp	r0, #0
	mov	ip, r1
	mov	r5, r3
	ble	.L170
	subs	lr, r0, #255
	movne	lr, #1
	cmp	r0, #16
	movle	r4, #0
	andgt	r4, lr, #1
	cmp	r4, #0
	bne	.L170
	cmp	r2, #0
	cmpne	r1, #0
	moveq	r1, #1
	movne	r1, #0
	cmp	r0, #255
	movne	r1, #0
	andeq	r1, r1, #1
	cmp	r1, #0
	bne	.L158
	cmp	r0, #1
	beq	.L185
	cmp	lr, #0
	ldrne	r3, .L187
	addne	r0, r3, r0, lsl #3
	ldrne	r2, [r0, #24]
	ldrne	ip, [r0, #20]
	mov	r1, r2
	mov	r0, ip, asl #10
	bl	__aeabi_idiv
	ldr	r1, [fp, #4]
	mov	r4, r0
	mov	r0, r5, asl #10
	bl	__aeabi_idiv
	movw	r3, #2405
	movw	r2, #2262
	mul	r0, r0, r4
	add	r4, r0, #1020
	cmp	r0, #0
	add	r4, r4, #3
	movlt	r0, r4
	mov	r0, r0, asr #10
	cmp	r0, r3
	rsble	r3, r0, #2400
	subgt	r3, r0, #2400
	addle	r3, r3, #6
	subgt	r3, r3, #6
	cmp	r0, r2
	bgt	.L163
	rsb	r2, r0, #2256
	add	r2, r2, #7
	cmp	r3, r2
	blt	.L178
.L164:
	movw	r3, #1819
	cmp	r0, r3
	bgt	.L165
	rsb	r3, r0, #1808
	add	r3, r3, #12
	cmp	r2, r3
	bge	.L166
.L180:
	mov	r4, #3
	b	.L158
.L170:
	mov	r4, #0
.L158:
	mov	r2, r4
	ldr	r1, .L187+4
	mov	r0, #22
	bl	dprint_vfmw
	mov	r0, r4
	ldmfd	sp, {r4, r5, fp, sp, pc}
.L163:
	sub	r2, r0, #2256
	sub	r2, r2, #7
	cmp	r3, r2
	bge	.L164
.L178:
	mov	r4, #4
	b	.L158
.L185:
	ldr	r2, [fp, #4]
	movw	r3, #4320
	cmp	r5, #7680
	cmpeq	r2, r3
	bne	.L186
.L175:
	mov	r4, #2
	b	.L158
.L165:
	sub	r3, r0, #1808
	sub	r3, r3, #12
	cmp	r2, r3
	blt	.L180
.L166:
	movw	r2, #1364
	cmp	r0, r2
	rsble	r4, r0, #1360
	subgt	r4, r0, #1360
	addle	r4, r4, #5
	subgt	r4, r4, #5
	cmp	r3, r4
	movlt	r4, #2
	movge	r4, #1
	b	.L158
.L186:
	cmp	r5, #3840
	cmpeq	r2, #2160
	beq	.L175
	sub	r3, r2, #1072
	sub	r3, r3, #8
	bics	r3, r3, #8
	moveq	r3, #1
	movne	r3, #0
	cmp	r5, #1920
	movne	r3, #0
	andeq	r3, r3, #1
	cmp	r3, #0
	bne	.L175
	cmp	r5, #1280
	cmpeq	r2, #720
	beq	.L175
	cmp	r5, #640
	cmpeq	r2, #480
	moveq	r4, #1
	movne	r4, #5
	b	.L158
.L188:
	.align	2
.L187:
	.word	.LANCHOR0
	.word	.LC6
	UNWIND(.fnend)
	.size	HEVC_GetDar, .-HEVC_GetDar
	.align	2
	.global	HEVC_PrintNaluArraySlot
	.type	HEVC_PrintNaluArraySlot, %function
HEVC_PrintNaluArraySlot:
	UNWIND(.fnstart)
	@ args = 0, pretend = 0, frame = 0
	@ frame_needed = 1, uses_anonymous_args = 0
	UNWIND(.movsp ip)
	mov	ip, sp
	stmfd	sp!, {r4, r5, r6, r7, fp, ip, lr, pc}
	UNWIND(.pad #4)
	UNWIND(.save {r4, r5, r6, r7, fp, ip, lr})
	UNWIND(.setfp fp, ip, #-4)
	sub	fp, ip, #4
	UNWIND(.pad #8)
	sub	sp, sp, #8
	ldr	r1, .L195
	mov	r6, r0
	mov	r0, #1
	bl	dprint_vfmw
	ldr	r3, [r6, #168]
	cmn	r3, #1
	movne	r5, #0
	movwne	r7, #52429
	movne	r4, r5
	movtne	r7, 52428
	bne	.L192
	b	.L193
.L191:
	ldr	r3, [r6, #168]
	add	r3, r3, #1
	cmp	r3, r4
	bls	.L193
.L192:
	ldr	r3, [r6, #2412]
	mov	r2, r4
	ldr	r1, .L195+4
	mov	r0, #1
	add	r3, r3, r5
	add	r5, r5, #96
	ldr	ip, [r3, #32]
	str	ip, [sp]
	bl	dprint_vfmw
	umull	r2, r3, r4, r7
	mov	r2, r3, lsr #3
	mov	r3, r2, asl #3
	add	r3, r3, r2, lsl #1
	cmp	r4, r3
	add	r4, r4, #1
	bne	.L191
	ldr	r1, .L195+8
	mov	r0, #1
	bl	dprint_vfmw
	ldr	r3, [r6, #168]
	add	r3, r3, #1
	cmp	r3, r4
	bhi	.L192
.L193:
	ldr	r1, .L195+8
	mov	r0, #1
	bl	dprint_vfmw
	ldr	r1, .L195+12
	mov	r0, #1
	sub	sp, fp, #28
	ldmfd	sp, {r4, r5, r6, r7, fp, sp, lr}
	b	dprint_vfmw
.L196:
	.align	2
.L195:
	.word	.LC7
	.word	.LC10
	.word	.LC8
	.word	.LC9
	UNWIND(.fnend)
	.size	HEVC_PrintNaluArraySlot, .-HEVC_PrintNaluArraySlot
	.align	2
	.global	HEVC_PrintCurrSlicelistX
	.type	HEVC_PrintCurrSlicelistX, %function
HEVC_PrintCurrSlicelistX:
	UNWIND(.fnstart)
	@ args = 0, pretend = 0, frame = 0
	@ frame_needed = 1, uses_anonymous_args = 0
	UNWIND(.movsp ip)
	mov	ip, sp
	stmfd	sp!, {r4, r5, r6, r7, fp, ip, lr, pc}
	UNWIND(.pad #4)
	UNWIND(.save {r4, r5, r6, r7, fp, ip, lr})
	UNWIND(.setfp fp, ip, #-4)
	sub	fp, ip, #4
	add	r6, r0, #4096
	mov	r7, r0
	ldr	r1, .L218
	mov	r0, #1
	bl	dprint_vfmw
	ldr	r2, [r6, #196]
	ldr	r1, .L218+4
	mov	r0, #1
	bl	dprint_vfmw
	ldr	r3, [r6, #196]
	cmp	r3, #0
	addne	r5, r7, #2416
	movne	r4, #0
	addne	r5, r5, #8
	beq	.L205
.L204:
	ldr	r3, [r5, #4]!
	mov	r2, r4
	ldr	r1, .L218+8
	mov	r0, #1
	bl	dprint_vfmw
	mov	r0, #1
	ldr	r3, [r5]
	add	r4, r4, r0
	ldr	r1, .L218+12
	cmp	r3, #0
	beq	.L202
	ldr	r2, [r3, #16]
	bl	dprint_vfmw
	ldr	r3, [r5]
	ldr	r3, [r3, #16]
	cmp	r3, #0
	beq	.L202
	ldr	r1, [r3, #28]
	ldr	r0, [r7, #252]
	bl	FSP_GetLogicFs
	ldr	r1, .L218+16
	mov	r2, r0
	mov	r0, #1
	bl	dprint_vfmw
.L202:
	ldr	r1, .L218+20
	mov	r0, #1
	bl	dprint_vfmw
	ldr	r3, [r6, #196]
	cmp	r3, r4
	bhi	.L204
.L205:
	ldr	r2, [r6, #200]
	mov	r0, #1
	ldr	r1, .L218+24
	bl	dprint_vfmw
	ldr	r3, [r6, #200]
	cmp	r3, #0
	addne	r5, r7, #2480
	movne	r4, #0
	addne	r5, r5, #12
	beq	.L200
.L209:
	ldr	r3, [r5, #4]!
	mov	r2, r4
	ldr	r1, .L218+28
	mov	r0, #1
	bl	dprint_vfmw
	mov	r0, #1
	ldr	r3, [r5]
	add	r4, r4, r0
	ldr	r1, .L218+12
	cmp	r3, #0
	beq	.L207
	ldr	r2, [r3, #16]
	bl	dprint_vfmw
	ldr	r3, [r5]
	ldr	r3, [r3, #16]
	cmp	r3, #0
	beq	.L207
	ldr	r1, [r3, #28]
	ldr	r0, [r7, #252]
	bl	FSP_GetLogicFs
	ldr	r1, .L218+16
	mov	r2, r0
	mov	r0, #1
	bl	dprint_vfmw
.L207:
	ldr	r1, .L218+20
	mov	r0, #1
	bl	dprint_vfmw
	ldr	r3, [r6, #200]
	cmp	r3, r4
	bhi	.L209
.L200:
	ldr	r1, .L218+32
	mov	r0, #1
	sub	sp, fp, #28
	ldmfd	sp, {r4, r5, r6, r7, fp, sp, lr}
	b	dprint_vfmw
.L219:
	.align	2
.L218:
	.word	.LC11
	.word	.LC12
	.word	.LC14
	.word	.LC15
	.word	.LC16
	.word	.LC8
	.word	.LC13
	.word	.LC18
	.word	.LC17
	UNWIND(.fnend)
	.size	HEVC_PrintCurrSlicelistX, .-HEVC_PrintCurrSlicelistX
	.align	2
	.global	HEVC_PrintFrameStoreState
	.type	HEVC_PrintFrameStoreState, %function
HEVC_PrintFrameStoreState:
	UNWIND(.fnstart)
	@ args = 0, pretend = 0, frame = 0
	@ frame_needed = 1, uses_anonymous_args = 0
	UNWIND(.movsp ip)
	mov	ip, sp
	stmfd	sp!, {r4, r5, r6, r7, r8, r9, r10, fp, ip, lr, pc}
	UNWIND(.pad #4)
	UNWIND(.save {r4, r5, r6, r7, r8, r9, r10, fp, ip, lr})
	UNWIND(.setfp fp, ip, #-4)
	sub	fp, ip, #4
	UNWIND(.pad #20)
	sub	sp, sp, #20
	ldr	r1, .L227
	mov	r10, r0
	mov	r0, #1
	bl	dprint_vfmw
	ldr	r3, [r10, #180]
	cmp	r3, #0
	addne	r8, r10, #12736
	movne	r9, #0
	addne	r8, r8, #8
	beq	.L224
.L223:
	ldrb	ip, [r8, #2]	@ zero_extendqisi2
	mov	r3, r8
	mov	r2, r9
	ldr	r1, .L227+4
	mov	r0, #1
	add	r5, r8, #616
	str	ip, [sp, #8]
	mov	r4, #0
	ldrb	ip, [r8, #1]	@ zero_extendqisi2
	str	ip, [sp, #4]
	ldr	ip, [r8, #48]
	str	ip, [sp]
	bl	dprint_vfmw
.L222:
	ldrd	r6, [r5, #8]!
	mov	r2, r4
	ldr	r1, .L227+8
	add	r4, r4, #1
	mov	r0, #1
	strd	r6, [sp]
	bl	dprint_vfmw
	cmp	r4, #4
	bne	.L222
	ldr	r1, .L227+12
	mov	r0, #1
	bl	dprint_vfmw
	ldr	r3, [r10, #180]
	add	r9, r9, #1
	add	r8, r8, #720
	cmp	r3, r9
	bhi	.L223
.L224:
	ldr	r1, .L227+16
	mov	r0, #1
	sub	sp, fp, #40
	ldmfd	sp, {r4, r5, r6, r7, r8, r9, r10, fp, sp, lr}
	b	dprint_vfmw
.L228:
	.align	2
.L227:
	.word	.LC19
	.word	.LC21
	.word	.LC22
	.word	.LC8
	.word	.LC20
	UNWIND(.fnend)
	.size	HEVC_PrintFrameStoreState, .-HEVC_PrintFrameStoreState
	.align	2
	.global	HEVC_PrintAPCState
	.type	HEVC_PrintAPCState, %function
HEVC_PrintAPCState:
	UNWIND(.fnstart)
	@ args = 0, pretend = 0, frame = 0
	@ frame_needed = 1, uses_anonymous_args = 0
	UNWIND(.movsp ip)
	mov	ip, sp
	stmfd	sp!, {r4, r5, r6, r7, fp, ip, lr, pc}
	UNWIND(.pad #4)
	UNWIND(.save {r4, r5, r6, r7, fp, ip, lr})
	UNWIND(.setfp fp, ip, #-4)
	sub	fp, ip, #4
	UNWIND(.pad #8)
	sub	sp, sp, #8
	ldr	r1, .L232
	mov	r5, r0
	mov	r0, #1
	bl	dprint_vfmw
	add	ip, r5, #12288
	mov	r2, #0
	ldr	r1, .L232+4
	ldr	r3, [ip, #260]
	mov	r0, #1
	ldr	ip, [ip, #256]
	add	r7, r5, #12544
	add	r6, r5, #12608
	add	r5, r5, #12672
	add	r7, r7, #4
	add	r6, r6, #4
	str	ip, [sp]
	add	r5, r5, #4
	bl	dprint_vfmw
	mov	r4, #0
.L230:
	ldr	lr, [r5, #4]!
	mov	r2, r4
	ldr	ip, [r6, #4]!
	add	r4, r4, #1
	ldr	r3, [r7, #4]!
	mov	r0, #1
	ldr	r1, .L232+8
	stmia	sp, {ip, lr}
	bl	dprint_vfmw
	cmp	r4, #16
	bne	.L230
	ldr	r1, .L232+12
	mov	r0, #1
	sub	sp, fp, #28
	ldmfd	sp, {r4, r5, r6, r7, fp, sp, lr}
	b	dprint_vfmw
.L233:
	.align	2
.L232:
	.word	.LC23
	.word	.LC24
	.word	.LC25
	.word	.LC26
	UNWIND(.fnend)
	.size	HEVC_PrintAPCState, .-HEVC_PrintAPCState
	.align	2
	.global	HEVC_PrintDPBState
	.type	HEVC_PrintDPBState, %function
HEVC_PrintDPBState:
	UNWIND(.fnstart)
	@ args = 0, pretend = 0, frame = 24
	@ frame_needed = 1, uses_anonymous_args = 0
	UNWIND(.movsp ip)
	mov	ip, sp
	stmfd	sp!, {r4, r5, r6, r7, r8, r9, r10, fp, ip, lr, pc}
	UNWIND(.pad #4)
	UNWIND(.save {r4, r5, r6, r7, r8, r9, r10, fp, ip, lr})
	UNWIND(.setfp fp, ip, #-4)
	sub	fp, ip, #4
	UNWIND(.pad #76)
	sub	sp, sp, #76
	ldr	r1, .L250
	mov	r9, r0
	mov	r0, #1
	bl	dprint_vfmw
	ldr	r1, [r9, #2612]
	ldr	lr, [r9, #2608]
	mov	r0, #1
	ldr	ip, [r9, #2616]
	ldr	r3, [r9, #2600]
	ldr	r2, [r9, #2596]
	stmia	sp, {r1, ip, lr}
	ldr	r1, .L250+4
	bl	dprint_vfmw
	ldr	r3, [r9, #2600]
	cmp	r3, #0
	addne	r4, r9, #2608
	movne	r5, #0
	addne	r4, r4, #8
	beq	.L239
.L238:
	ldr	r3, [r4, #4]!
	ldr	r0, [r9, #252]
	ldr	r2, [r3, #32]
	ldrb	ip, [r3]	@ zero_extendqisi2
	ldr	lr, [r3, #48]
	ldrb	r6, [r3, #1]	@ zero_extendqisi2
	ldrb	r7, [r3, #2]	@ zero_extendqisi2
	ldr	r1, [r3, #28]
	str	r2, [fp, #-48]
	str	ip, [fp, #-52]
	str	lr, [fp, #-56]
	ldr	r8, [r3, #8]
	ldr	r10, [r3, #60]
	str	r6, [fp, #-60]
	str	r7, [fp, #-64]
	bl	FSP_GetLogicFs
	ldr	r3, [r4]
	ldr	r1, [r3, #28]
	mov	r6, r0
	ldr	r0, [r9, #252]
	bl	FSP_GetRef
	ldr	r3, [r4]
	ldr	r1, [r3, #28]
	mov	r7, r0
	ldr	r0, [r9, #252]
	bl	FSP_GetDisplay
	ldr	r1, [r4]
	ldr	lr, [fp, #-56]
	mov	r2, r5
	add	r5, r5, #1
	ldr	ip, [r1, #228]
	mov	r3, r1
	str	ip, [sp, #44]
	ldr	r1, [r1, #28]
	ldr	ip, [fp, #-52]
	str	r10, [sp, #24]
	str	r8, [sp, #20]
	str	r1, [sp, #40]
	ldr	r10, [fp, #-64]
	ldr	r1, [fp, #-48]
	ldr	r8, [fp, #-60]
	str	r10, [sp, #16]
	str	r1, [sp]
	str	r8, [sp, #12]
	str	lr, [sp, #8]
	str	ip, [sp, #4]
	str	r7, [sp, #32]
	str	r6, [sp, #28]
	ldr	r1, .L250+8
	str	r0, [sp, #36]
	mov	r0, #1
	bl	dprint_vfmw
	ldr	r3, [r9, #2600]
	cmp	r3, r5
	bhi	.L238
.L239:
	ldr	r1, .L250+12
	mov	r0, #1
	bl	dprint_vfmw
	ldr	r3, [r9, #2600]
	cmp	r3, #0
	addne	r5, r9, #2608
	movne	r6, #0
	addne	r5, r5, #8
	bne	.L246
	b	.L237
.L249:
	bl	dprint_vfmw
	ldr	r2, [r4, #20]
	ldr	r1, .L250+16
	mov	r0, #1
	bl	dprint_vfmw
	ldrsb	r2, [r4]
	ldr	r1, .L250+20
	mov	r0, #1
	bl	dprint_vfmw
	ldrsb	r2, [r4, #1]
	ldr	r1, .L250+24
	mov	r0, #1
	bl	dprint_vfmw
.L241:
	cmp	r8, #0
	mov	r2, r8
	ldr	r1, .L250+28
	mov	r0, #1
	beq	.L242
	bl	dprint_vfmw
	ldr	r2, [r8, #76]
	ldr	r1, .L250+32
	mov	r0, #1
	bl	dprint_vfmw
.L243:
	cmp	r7, #0
	mov	r2, r7
	ldr	r1, .L250+36
	mov	r0, #1
	beq	.L244
	bl	dprint_vfmw
	ldr	r2, [r7, #76]
	ldr	r1, .L250+40
	mov	r0, #1
	bl	dprint_vfmw
.L245:
	ldr	r1, .L250+12
	mov	r0, #1
	bl	dprint_vfmw
	ldr	r3, [r9, #2600]
	add	r6, r6, #1
	cmp	r3, r6
	bls	.L237
.L246:
	ldr	r3, [r5, #4]!
	ldr	r0, [r9, #252]
	ldr	r1, [r3, #28]
	bl	FSP_GetLogicFs
	ldr	r3, [r5]
	ldr	r1, [r3, #28]
	mov	r4, r0
	ldr	r0, [r9, #252]
	bl	FSP_GetDecPhyFs
	ldr	r3, [r5]
	ldr	r1, [r3, #28]
	mov	r8, r0
	ldr	r0, [r9, #252]
	bl	FSP_GetDispPhyFs
	mov	r2, r6
	ldr	r1, .L250+44
	mov	r7, r0
	mov	r0, #1
	bl	dprint_vfmw
	cmp	r4, #0
	mov	r2, r4
	ldr	r1, .L250+48
	mov	r0, #1
	bne	.L249
	ldr	r1, .L250+52
	mov	r0, #1
	bl	dprint_vfmw
	b	.L241
.L244:
	ldr	r1, .L250+56
	mov	r0, #1
	bl	dprint_vfmw
	b	.L245
.L242:
	ldr	r1, .L250+60
	mov	r0, #1
	bl	dprint_vfmw
	b	.L243
.L237:
	ldr	r1, .L250+64
	mov	r0, #1
	sub	sp, fp, #40
	ldmfd	sp, {r4, r5, r6, r7, r8, r9, r10, fp, sp, lr}
	b	dprint_vfmw
.L251:
	.align	2
.L250:
	.word	.LC27
	.word	.LC28
	.word	.LC29
	.word	.LC8
	.word	.LC33
	.word	.LC34
	.word	.LC35
	.word	.LC37
	.word	.LC38
	.word	.LC40
	.word	.LC41
	.word	.LC31
	.word	.LC32
	.word	.LC36
	.word	.LC42
	.word	.LC39
	.word	.LC30
	UNWIND(.fnend)
	.size	HEVC_PrintDPBState, .-HEVC_PrintDPBState
	.align	2
	.global	HEVC_IsSliceUnit
	.type	HEVC_IsSliceUnit, %function
HEVC_IsSliceUnit:
	UNWIND(.fnstart)
	@ args = 0, pretend = 0, frame = 0
	@ frame_needed = 1, uses_anonymous_args = 0
	UNWIND(.movsp ip)
	mov	ip, sp
	stmfd	sp!, {fp, ip, lr, pc}
	UNWIND(.pad #4)
	UNWIND(.save {fp, ip, lr})
	UNWIND(.setfp fp, ip, #-4)
	sub	fp, ip, #4
	cmp	r0, #9
	bls	.L254
	sub	r0, r0, #16
	cmp	r0, #5
	movhi	r0, #0
	movls	r0, #1
	ldmfd	sp, {fp, sp, pc}
.L254:
	mov	r0, #1
	ldmfd	sp, {fp, sp, pc}
	UNWIND(.fnend)
	.size	HEVC_IsSliceUnit, .-HEVC_IsSliceUnit
	.align	2
	.global	HEVC_IsIUnit
	.type	HEVC_IsIUnit, %function
HEVC_IsIUnit:
	UNWIND(.fnstart)
	@ args = 0, pretend = 0, frame = 0
	@ frame_needed = 1, uses_anonymous_args = 0
	UNWIND(.movsp ip)
	mov	ip, sp
	stmfd	sp!, {fp, ip, lr, pc}
	UNWIND(.pad #4)
	UNWIND(.save {fp, ip, lr})
	UNWIND(.setfp fp, ip, #-4)
	sub	fp, ip, #4
	sub	r0, r0, #16
	cmp	r0, #5
	movhi	r0, #0
	movls	r0, #1
	ldmfd	sp, {fp, sp, pc}
	UNWIND(.fnend)
	.size	HEVC_IsIUnit, .-HEVC_IsIUnit
	.align	2
	.global	HEVC_IsNonRefPic
	.type	HEVC_IsNonRefPic, %function
HEVC_IsNonRefPic:
	UNWIND(.fnstart)
	@ args = 0, pretend = 0, frame = 0
	@ frame_needed = 1, uses_anonymous_args = 0
	UNWIND(.movsp ip)
	mov	ip, sp
	stmfd	sp!, {fp, ip, lr, pc}
	UNWIND(.pad #4)
	UNWIND(.save {fp, ip, lr})
	UNWIND(.setfp fp, ip, #-4)
	sub	fp, ip, #4
	bics	r0, r0, #6
	subne	r0, r0, #8
	clzne	r0, r0
	movne	r0, r0, lsr #5
	moveq	r0, #1
	ldmfd	sp, {fp, sp, pc}
	UNWIND(.fnend)
	.size	HEVC_IsNonRefPic, .-HEVC_IsNonRefPic
	.align	2
	.global	HEVC_IsFlushUnit
	.type	HEVC_IsFlushUnit, %function
HEVC_IsFlushUnit:
	UNWIND(.fnstart)
	@ args = 0, pretend = 0, frame = 0
	@ frame_needed = 1, uses_anonymous_args = 0
	UNWIND(.movsp ip)
	mov	ip, sp
	stmfd	sp!, {fp, ip, lr, pc}
	UNWIND(.pad #4)
	UNWIND(.save {fp, ip, lr})
	UNWIND(.setfp fp, ip, #-4)
	sub	fp, ip, #4
	sub	r0, r0, #16
	cmp	r0, #4
	movhi	r0, #0
	movls	r0, #1
	ldmfd	sp, {fp, sp, pc}
	UNWIND(.fnend)
	.size	HEVC_IsFlushUnit, .-HEVC_IsFlushUnit
	.align	2
	.global	HEVC_IsPVRFlushPic
	.type	HEVC_IsPVRFlushPic, %function
HEVC_IsPVRFlushPic:
	UNWIND(.fnstart)
	@ args = 0, pretend = 0, frame = 0
	@ frame_needed = 1, uses_anonymous_args = 0
	UNWIND(.movsp ip)
	mov	ip, sp
	stmfd	sp!, {fp, ip, lr, pc}
	UNWIND(.pad #4)
	UNWIND(.save {fp, ip, lr})
	UNWIND(.setfp fp, ip, #-4)
	sub	fp, ip, #4
	cmp	r1, #0
	bne	.L262
	ldr	r3, [r0, #2416]
	ldr	r2, [r3, #660]
	cmp	r2, #1
	beq	.L266
.L265:
	mov	r0, r1
	ldmfd	sp, {fp, sp, pc}
.L262:
	mov	r0, #0
	ldmfd	sp, {fp, sp, pc}
.L266:
	ldr	r2, [r3, #656]
	cmp	r2, #1
	bne	.L265
	ldr	r2, [r3, #664]
	cmp	r2, #0
	bne	.L265
	ldr	r0, [r3, #620]
	add	r0, r0, #1024
	cmp	r0, #2048
	movls	r0, #0
	movhi	r0, #1
	ldmfd	sp, {fp, sp, pc}
	UNWIND(.fnend)
	.size	HEVC_IsPVRFlushPic, .-HEVC_IsPVRFlushPic
	.align	2
	.global	HEVC_IsEosNal
	.type	HEVC_IsEosNal, %function
HEVC_IsEosNal:
	UNWIND(.fnstart)
	@ args = 0, pretend = 0, frame = 0
	@ frame_needed = 1, uses_anonymous_args = 0
	UNWIND(.movsp ip)
	mov	ip, sp
	stmfd	sp!, {r4, r5, fp, ip, lr, pc}
	UNWIND(.pad #4)
	UNWIND(.save {r4, r5, fp, ip, lr})
	UNWIND(.setfp fp, ip, #-4)
	sub	fp, ip, #4
	mov	r1, #32
	mov	r4, r0
	ldr	r0, [r0, #2368]
	bl	BsGet
	mov	r1, #32
	mov	r5, r0
	ldr	r0, [r4, #2368]
	bl	BsGet
	movw	r2, #20036
	movw	r3, #20553
	movt	r2, 17221
	movt	r3, 18515
	cmp	r0, r2
	cmpeq	r5, r3
	moveq	r0, #1
	movne	r0, #0
	ldmfd	sp, {r4, r5, fp, sp, pc}
	UNWIND(.fnend)
	.size	HEVC_IsEosNal, .-HEVC_IsEosNal
	.align	2
	.global	HEVC_CalcTileInfo
	.type	HEVC_CalcTileInfo, %function
HEVC_CalcTileInfo:
	UNWIND(.fnstart)
	@ args = 0, pretend = 0, frame = 8
	@ frame_needed = 1, uses_anonymous_args = 0
	UNWIND(.movsp ip)
	mov	ip, sp
	stmfd	sp!, {r4, r5, r6, r7, r8, r9, r10, fp, ip, lr, pc}
	UNWIND(.pad #4)
	UNWIND(.save {r4, r5, r6, r7, r8, r9, r10, fp, ip, lr})
	UNWIND(.setfp fp, ip, #-4)
	sub	fp, ip, #4
	UNWIND(.pad #20)
	sub	sp, sp, #20
	mov	r7, r1
	ldr	r1, [r0, #2404]
	mov	r5, r2
	ldr	r2, [r0, #2400]
	mov	r4, r0
	str	r3, [fp, #-48]
	ldr	r6, [r1, #68]
	ldr	r2, [r2, #128]
	sub	r3, r6, #1
	ldr	r8, [r1, #72]
	cmp	r3, #9
	str	r2, [fp, #-52]
	bhi	.L296
	sub	r3, r8, #1
	cmp	r3, #10
	bhi	.L297
	ldr	r9, .L298
	mov	r2, #512
	mov	r1, #0
	mov	r0, r7
	ldr	r3, [r9, #48]
	blx	r3
	ldr	r3, [r9, #48]
	mov	r2, #80
	mov	r1, #0
	mov	r0, r5
	blx	r3
	ldr	r3, [r9, #48]
	mov	r2, #88
	mov	r1, #0
	ldr	r0, [fp, #-48]
	blx	r3
	cmp	r6, #0
	ble	.L277
	ldr	r3, [fp, #-52]
	mov	ip, #0
	mov	lr, ip
	mov	r9, r5
	sub	r10, r3, #4
.L276:
	str	ip, [r5, lr, asl #3]
	mov	r3, ip, asl r10
	ldr	r2, [r4, #2404]
	add	r2, r2, lr, lsl #1
	ldrsh	r2, [r2, #172]
	add	ip, r2, ip
	sub	r2, ip, #1
	str	r2, [r9, #4]
	mov	r1, ip, asl r10
	cmp	r3, r1
	bge	.L282
	cmp	r3, #255
	bhi	.L278
	uxtb	r0, lr
	add	r2, r7, r3
	b	.L280
.L281:
	cmp	r3, #256
	beq	.L278
.L280:
	add	r3, r3, #1
	strb	r0, [r2], #1
	cmp	r3, r1
	bne	.L281
.L282:
	add	lr, lr, #1
	add	r9, r9, #8
	cmp	lr, r6
	bne	.L276
.L277:
	cmp	r8, #0
	ble	.L274
	ldr	r3, [fp, #-52]
	mov	ip, #0
	ldr	r9, [fp, #-48]
	mov	lr, ip
	sub	r5, r3, #4
	mov	r6, r9
.L284:
	str	ip, [r9, lr, asl #3]
	mov	r3, ip, asl r5
	ldr	r2, [r4, #2404]
	add	r2, r2, lr, lsl #1
	ldrsh	r2, [r2, #212]
	add	ip, r2, ip
	sub	r2, ip, #1
	str	r2, [r6, #4]
	mov	r1, ip, asl r5
	cmp	r3, r1
	bge	.L289
	cmp	r3, #255
	bhi	.L285
	add	r2, r3, #255
	uxtb	r0, lr
	add	r2, r7, r2
	b	.L287
.L288:
	cmp	r3, #256
	beq	.L285
.L287:
	add	r3, r3, #1
	strb	r0, [r2, #1]!
	cmp	r3, r1
	bne	.L288
.L289:
	add	lr, lr, #1
	add	r6, r6, #8
	cmp	lr, r8
	bne	.L284
.L274:
	mov	r0, #0
	b	.L270
.L278:
	ldr	r2, .L298+4
	mov	r0, #1
	ldr	r1, .L298+8
	bl	dprint_vfmw
	mvn	r0, #0
.L270:
	sub	sp, fp, #40
	ldmfd	sp, {r4, r5, r6, r7, r8, r9, r10, fp, sp, pc}
.L285:
	ldr	r2, .L298+4
	mov	r0, #1
	ldr	r1, .L298+12
	bl	dprint_vfmw
	mvn	r0, #0
	b	.L270
.L297:
	mov	r1, #11
	mov	r3, r8
	str	r1, [sp]
	mov	r0, #1
	ldr	r2, .L298+4
	ldr	r1, .L298+16
	bl	dprint_vfmw
	mvn	r0, #0
	b	.L270
.L296:
	mov	r1, #10
	mov	r3, r6
	str	r1, [sp]
	mov	r0, #1
	ldr	r2, .L298+4
	ldr	r1, .L298+20
	bl	dprint_vfmw
	mvn	r0, #0
	b	.L270
.L299:
	.align	2
.L298:
	.word	vfmw_Osal_Func_Ptr_S
	.word	.LANCHOR0+156
	.word	.LC45
	.word	.LC46
	.word	.LC44
	.word	.LC43
	UNWIND(.fnend)
	.size	HEVC_CalcTileInfo, .-HEVC_CalcTileInfo
	.align	2
	.global	HEVC_Sei_More_Data_In_Payload
	.type	HEVC_Sei_More_Data_In_Payload, %function
HEVC_Sei_More_Data_In_Payload:
	UNWIND(.fnstart)
	@ args = 0, pretend = 0, frame = 0
	@ frame_needed = 1, uses_anonymous_args = 0
	UNWIND(.movsp ip)
	mov	ip, sp
	stmfd	sp!, {r4, r5, fp, ip, lr, pc}
	UNWIND(.pad #4)
	UNWIND(.save {r4, r5, fp, ip, lr})
	UNWIND(.setfp fp, ip, #-4)
	sub	fp, ip, #4
	ldr	r2, [r0, #2368]
	mov	r5, r1
	ldr	r3, [r2, #24]
	mov	r0, r2
	ldr	r4, [r2, #28]
	rsb	r4, r4, r3
	bl	BsIsByteAligned
	cmp	r4, r5, asl #3
	movne	r3, #1
	moveq	r3, #0
	cmp	r0, #0
	moveq	r0, #0
	andne	r0, r3, #1
	eor	r0, r0, #1
	ldmfd	sp, {r4, r5, fp, sp, pc}
	UNWIND(.fnend)
	.size	HEVC_Sei_More_Data_In_Payload, .-HEVC_Sei_More_Data_In_Payload
	.align	2
	.global	HEVC_Sei_Payload_Extension_Present
	.type	HEVC_Sei_Payload_Extension_Present, %function
HEVC_Sei_Payload_Extension_Present:
	UNWIND(.fnstart)
	@ args = 0, pretend = 0, frame = 32
	@ frame_needed = 1, uses_anonymous_args = 0
	UNWIND(.movsp ip)
	mov	ip, sp
	stmfd	sp!, {r4, r5, fp, ip, lr, pc}
	UNWIND(.pad #4)
	UNWIND(.save {r4, r5, fp, ip, lr})
	UNWIND(.setfp fp, ip, #-4)
	sub	fp, ip, #4
	UNWIND(.pad #32)
	sub	sp, sp, #32
	ldr	r3, .L308
	mov	r5, r1
	mov	r2, #32
	ldr	r1, [r0, #2368]
	sub	r0, fp, #52
	ldr	r3, [r3, #52]
	mov	r5, r5, asl #3
	blx	r3
	ldr	r3, [fp, #-28]
	ldr	r2, [fp, #-24]
	rsb	r3, r2, r3
	cmp	r3, r5
	movcs	r0, #0
	bcc	.L307
.L302:
	sub	sp, fp, #20
	ldmfd	sp, {r4, r5, fp, sp, pc}
.L307:
	mov	r1, #1
	sub	r0, fp, #52
	bl	BsShow
	cmp	r0, #0
	moveq	r0, #1
	beq	.L302
	mov	r1, #1
	sub	r0, fp, #52
	bl	BsSkip
	ldr	r3, [fp, #-28]
	ldr	r4, [fp, #-24]
	rsb	r4, r4, r3
	b	.L303
.L304:
	bl	BsSkip
	ldr	r3, [fp, #-28]
	ldr	r4, [fp, #-24]
	rsb	r4, r4, r3
.L303:
	mov	r1, #1
	sub	r0, fp, #52
	bl	BsShow
	cmp	r4, r5
	mov	r1, #1
	movcs	r3, #0
	movcc	r3, #1
	cmp	r0, #0
	movne	r2, #0
	andeq	r2, r3, #1
	sub	r0, fp, #52
	cmp	r2, #0
	bne	.L304
	mov	r0, r3
	sub	sp, fp, #20
	ldmfd	sp, {r4, r5, fp, sp, pc}
.L309:
	.align	2
.L308:
	.word	vfmw_Osal_Func_Ptr_S
	UNWIND(.fnend)
	.size	HEVC_Sei_Payload_Extension_Present, .-HEVC_Sei_Payload_Extension_Present
	.align	2
	.global	HEVC_Sei_Decoded_Picture_Hash
	.type	HEVC_Sei_Decoded_Picture_Hash, %function
HEVC_Sei_Decoded_Picture_Hash:
	UNWIND(.fnstart)
	@ args = 0, pretend = 0, frame = 0
	@ frame_needed = 1, uses_anonymous_args = 0
	UNWIND(.movsp ip)
	mov	ip, sp
	stmfd	sp!, {r4, r5, r6, r7, fp, ip, lr, pc}
	UNWIND(.pad #4)
	UNWIND(.save {r4, r5, r6, r7, fp, ip, lr})
	UNWIND(.setfp fp, ip, #-4)
	sub	fp, ip, #4
	cmp	r1, #0
	cmpne	r0, #0
	mov	r5, r0
	beq	.L318
	mov	r1, #8
	ldr	r0, [r0, #2368]
	bl	BsGet
	mov	r6, #3
	mov	r7, r0
.L317:
	cmp	r7, #0
	bne	.L312
	mov	r4, #16
.L313:
	mov	r1, #8
	ldr	r0, [r5, #2368]
	bl	BsGet
	subs	r4, r4, #1
	bne	.L313
.L314:
	subs	r6, r6, #1
	bne	.L317
.L322:
	mov	r0, r6
	ldmfd	sp, {r4, r5, r6, r7, fp, sp, pc}
.L312:
	cmp	r7, #1
	beq	.L321
	cmp	r7, #2
	bne	.L314
	mov	r1, #32
	ldr	r0, [r5, #2368]
	bl	BsGet
	subs	r6, r6, #1
	bne	.L317
	b	.L322
.L321:
	mov	r1, #16
	ldr	r0, [r5, #2368]
	bl	BsGet
	subs	r6, r6, #1
	bne	.L317
	b	.L322
.L318:
	mvn	r0, #0
	ldmfd	sp, {r4, r5, r6, r7, fp, sp, pc}
	UNWIND(.fnend)
	.size	HEVC_Sei_Decoded_Picture_Hash, .-HEVC_Sei_Decoded_Picture_Hash
	.align	2
	.global	HEVC_Sei_Region_Refresh_Info
	.type	HEVC_Sei_Region_Refresh_Info, %function
HEVC_Sei_Region_Refresh_Info:
	UNWIND(.fnstart)
	@ args = 0, pretend = 0, frame = 0
	@ frame_needed = 1, uses_anonymous_args = 0
	UNWIND(.movsp ip)
	mov	ip, sp
	stmfd	sp!, {r4, r5, fp, ip, lr, pc}
	UNWIND(.pad #4)
	UNWIND(.save {r4, r5, fp, ip, lr})
	UNWIND(.setfp fp, ip, #-4)
	sub	fp, ip, #4
	cmp	r1, #0
	cmpne	r0, #0
	moveq	r4, #1
	movne	r4, #0
	beq	.L325
	mov	r1, #1
	ldr	r0, [r0, #2368]
	bl	BsGet
	mov	r0, r4
	ldmfd	sp, {r4, r5, fp, sp, pc}
.L325:
	mvn	r0, #0
	ldmfd	sp, {r4, r5, fp, sp, pc}
	UNWIND(.fnend)
	.size	HEVC_Sei_Region_Refresh_Info, .-HEVC_Sei_Region_Refresh_Info
	.align	2
	.global	HEVC_Sei_Mastering_Display_Colour_Volume
	.type	HEVC_Sei_Mastering_Display_Colour_Volume, %function
HEVC_Sei_Mastering_Display_Colour_Volume:
	UNWIND(.fnstart)
	@ args = 0, pretend = 0, frame = 0
	@ frame_needed = 1, uses_anonymous_args = 0
	UNWIND(.movsp ip)
	mov	ip, sp
	stmfd	sp!, {r4, r5, r6, r7, fp, ip, lr, pc}
	UNWIND(.pad #4)
	UNWIND(.save {r4, r5, r6, r7, fp, ip, lr})
	UNWIND(.setfp fp, ip, #-4)
	sub	fp, ip, #4
	cmp	r1, #0
	cmpne	r0, #0
	mov	r5, r0
	mov	r6, r1
	beq	.L329
	add	r7, r1, #12
	mov	r4, r1
	mov	r3, #1
	strb	r3, [r1]
.L328:
	mov	r1, #16
	ldr	r0, [r5, #2368]
	bl	BsGet
	mov	r1, #16
	str	r0, [r4, #4]!
	ldr	r0, [r5, #2368]
	bl	BsGet
	cmp	r4, r7
	str	r0, [r4, #12]
	bne	.L328
	mov	r1, #16
	ldr	r0, [r5, #2368]
	bl	BsGet
	mov	r1, #16
	str	r0, [r6, #28]
	ldr	r0, [r5, #2368]
	bl	BsGet
	mov	r1, #32
	str	r0, [r6, #32]
	ldr	r0, [r5, #2368]
	bl	BsGet
	mov	r1, #32
	str	r0, [r6, #36]
	ldr	r0, [r5, #2368]
	bl	BsGet
	mov	r3, #0
	str	r0, [r6, #40]
.L327:
	mov	r0, r3
	ldmfd	sp, {r4, r5, r6, r7, fp, sp, pc}
.L329:
	mvn	r3, #0
	b	.L327
	UNWIND(.fnend)
	.size	HEVC_Sei_Mastering_Display_Colour_Volume, .-HEVC_Sei_Mastering_Display_Colour_Volume
	.align	2
	.global	HEVC_Sei_Content_Light_Level_Information
	.type	HEVC_Sei_Content_Light_Level_Information, %function
HEVC_Sei_Content_Light_Level_Information:
	UNWIND(.fnstart)
	@ args = 0, pretend = 0, frame = 0
	@ frame_needed = 1, uses_anonymous_args = 0
	UNWIND(.movsp ip)
	mov	ip, sp
	stmfd	sp!, {r4, r5, r6, r7, fp, ip, lr, pc}
	UNWIND(.pad #4)
	UNWIND(.save {r4, r5, r6, r7, fp, ip, lr})
	UNWIND(.setfp fp, ip, #-4)
	sub	fp, ip, #4
	cmp	r1, #0
	cmpne	r0, #0
	mov	r6, r0
	mov	r5, r1
	moveq	r4, #1
	movne	r4, #0
	beq	.L333
	mov	r3, #1
	mov	r1, #16
	strb	r3, [r5]
	ldr	r0, [r0, #2368]
	bl	BsGet
	mov	r1, #16
	strh	r0, [r5, #2]	@ movhi
	ldr	r0, [r6, #2368]
	bl	BsGet
	mov	r3, r4
	strh	r0, [r5, #4]	@ movhi
.L332:
	mov	r0, r3
	ldmfd	sp, {r4, r5, r6, r7, fp, sp, pc}
.L333:
	mvn	r3, #0
	b	.L332
	UNWIND(.fnend)
	.size	HEVC_Sei_Content_Light_Level_Information, .-HEVC_Sei_Content_Light_Level_Information
	.align	2
	.global	HEVC_Sei_HLGHDR_Comapitibility_Info
	.type	HEVC_Sei_HLGHDR_Comapitibility_Info, %function
HEVC_Sei_HLGHDR_Comapitibility_Info:
	UNWIND(.fnstart)
	@ args = 0, pretend = 0, frame = 0
	@ frame_needed = 1, uses_anonymous_args = 0
	UNWIND(.movsp ip)
	mov	ip, sp
	stmfd	sp!, {r4, r5, fp, ip, lr, pc}
	UNWIND(.pad #4)
	UNWIND(.save {r4, r5, fp, ip, lr})
	UNWIND(.setfp fp, ip, #-4)
	sub	fp, ip, #4
	cmp	r1, #0
	cmpne	r0, #0
	mov	r5, r1
	moveq	r4, #1
	movne	r4, #0
	beq	.L336
	ldr	r0, [r0, #2368]
	mov	r1, #8
	bl	BsGet
	mov	r3, r4
	strb	r0, [r5]
.L335:
	mov	r0, r3
	ldmfd	sp, {r4, r5, fp, sp, pc}
.L336:
	mvn	r3, #0
	b	.L335
	UNWIND(.fnend)
	.size	HEVC_Sei_HLGHDR_Comapitibility_Info, .-HEVC_Sei_HLGHDR_Comapitibility_Info
	.align	2
	.global	HEVC_Sei_Temporal_Sub_Layer_Zero_Index
	.type	HEVC_Sei_Temporal_Sub_Layer_Zero_Index, %function
HEVC_Sei_Temporal_Sub_Layer_Zero_Index:
	UNWIND(.fnstart)
	@ args = 0, pretend = 0, frame = 0
	@ frame_needed = 1, uses_anonymous_args = 0
	UNWIND(.movsp ip)
	mov	ip, sp
	stmfd	sp!, {r4, r5, fp, ip, lr, pc}
	UNWIND(.pad #4)
	UNWIND(.save {r4, r5, fp, ip, lr})
	UNWIND(.setfp fp, ip, #-4)
	sub	fp, ip, #4
	cmp	r1, #0
	cmpne	r0, #0
	mov	r5, r0
	moveq	r4, #1
	movne	r4, #0
	beq	.L339
	mov	r1, #1
	ldr	r0, [r0, #2368]
	bl	BsGet
	mov	r1, #1
	ldr	r0, [r5, #2368]
	bl	BsGet
	ldr	r0, [r5, #2368]
	bl	BsToNextByte
	mov	r0, r4
	ldmfd	sp, {r4, r5, fp, sp, pc}
.L339:
	mvn	r0, #0
	ldmfd	sp, {r4, r5, fp, sp, pc}
	UNWIND(.fnend)
	.size	HEVC_Sei_Temporal_Sub_Layer_Zero_Index, .-HEVC_Sei_Temporal_Sub_Layer_Zero_Index
	.align	2
	.global	HEVC_Sei_Display_Orientation
	.type	HEVC_Sei_Display_Orientation, %function
HEVC_Sei_Display_Orientation:
	UNWIND(.fnstart)
	@ args = 0, pretend = 0, frame = 0
	@ frame_needed = 1, uses_anonymous_args = 0
	UNWIND(.movsp ip)
	mov	ip, sp
	stmfd	sp!, {r4, r5, fp, ip, lr, pc}
	UNWIND(.pad #4)
	UNWIND(.save {r4, r5, fp, ip, lr})
	UNWIND(.setfp fp, ip, #-4)
	sub	fp, ip, #4
	cmp	r1, #0
	cmpne	r0, #0
	mov	r4, r0
	beq	.L343
	mov	r1, #1
	ldr	r0, [r0, #2368]
	bl	BsGet
	tst	r0, #255
	beq	.L344
.L342:
	ldr	r0, [r4, #2368]
	bl	BsToNextByte
	mov	r0, #0
	ldmfd	sp, {r4, r5, fp, sp, pc}
.L344:
	mov	r1, #1
	ldr	r0, [r4, #2368]
	bl	BsGet
	mov	r1, #1
	ldr	r0, [r4, #2368]
	bl	BsGet
	mov	r1, #16
	ldr	r0, [r4, #2368]
	bl	BsGet
	mov	r1, #1
	ldr	r0, [r4, #2368]
	bl	BsGet
	b	.L342
.L343:
	mvn	r0, #0
	ldmfd	sp, {r4, r5, fp, sp, pc}
	UNWIND(.fnend)
	.size	HEVC_Sei_Display_Orientation, .-HEVC_Sei_Display_Orientation
	.align	2
	.global	HEVC_Sei_TSI
	.type	HEVC_Sei_TSI, %function
HEVC_Sei_TSI:
	UNWIND(.fnstart)
	@ args = 0, pretend = 0, frame = 0
	@ frame_needed = 1, uses_anonymous_args = 0
	UNWIND(.movsp ip)
	mov	ip, sp
	stmfd	sp!, {r4, r5, r6, r7, fp, ip, lr, pc}
	UNWIND(.pad #4)
	UNWIND(.save {r4, r5, r6, r7, fp, ip, lr})
	UNWIND(.setfp fp, ip, #-4)
	sub	fp, ip, #4
	cmp	r1, #0
	cmpne	r0, #0
	mov	r6, r0
	mov	r5, r1
	moveq	r4, #1
	movne	r4, #0
	beq	.L347
	mov	r1, #4
	ldr	r0, [r0, #2368]
	bl	BsGet
	mov	r1, #4
	strb	r0, [r5, #1]
	ldr	r0, [r6, #2368]
	bl	BsGet
	mov	r3, r4
	mov	r2, #1
	strb	r2, [r5]
	strb	r0, [r5, #2]
.L346:
	mov	r0, r3
	ldmfd	sp, {r4, r5, r6, r7, fp, sp, pc}
.L347:
	mvn	r3, #0
	b	.L346
	UNWIND(.fnend)
	.size	HEVC_Sei_TSI, .-HEVC_Sei_TSI
	.align	2
	.global	HEVC_Sei_User_Data_Unregistered
	.type	HEVC_Sei_User_Data_Unregistered, %function
HEVC_Sei_User_Data_Unregistered:
	UNWIND(.fnstart)
	@ args = 0, pretend = 0, frame = 8
	@ frame_needed = 1, uses_anonymous_args = 0
	UNWIND(.movsp ip)
	mov	ip, sp
	stmfd	sp!, {r4, r5, r6, fp, ip, lr, pc}
	UNWIND(.pad #4)
	UNWIND(.save {r4, r5, r6, fp, ip, lr})
	UNWIND(.setfp fp, ip, #-4)
	sub	fp, ip, #4
	UNWIND(.pad #12)
	sub	sp, sp, #12
	cmp	r2, #15
	mov	r3, #0
	mov	r6, r2
	mov	r5, r0
	str	r3, [fp, #-36]
	strh	r3, [fp, #-32]	@ movhi
	movhi	r4, #16
	bls	.L361
.L351:
	mov	r1, #8
	ldr	r0, [r5, #2368]
	bl	BsGet
	subs	r4, r4, #1
	bne	.L351
	subs	r6, r6, #16
	beq	.L354
.L352:
	mov	r1, #8
	ldr	r0, [r5, #2368]
	bl	BsGet
	cmp	r4, #5
	subls	r3, fp, #36
	strlsb	r0, [r4, r3]
	add	r4, r4, #1
	cmp	r6, r4
	bne	.L352
	cmp	r6, #5
	bls	.L354
	ldr	r2, [fp, #-36]
	movw	r3, #21572
	movt	r3, 12615
	cmp	r2, r3
	beq	.L362
.L354:
	mov	r0, #0
.L350:
	sub	sp, fp, #24
	ldmfd	sp, {r4, r5, r6, fp, sp, pc}
.L362:
	ldrb	r2, [fp, #-32]	@ zero_extendqisi2
	add	r5, r5, #24576
	sub	r2, r2, #65
	ldrb	r3, [r5, #2572]	@ zero_extendqisi2
	clz	r2, r2
	mov	r2, r2, lsr #5
	bfi	r3, r2, #0, #1
	strb	r3, [r5, #2572]
	uxtb	r3, r3
	tst	r3, #1
	beq	.L354
	ldrb	r2, [fp, #-31]	@ zero_extendqisi2
	mov	r0, #0
	bfi	r3, r2, #1, #4
	strb	r3, [r5, #2572]
	b	.L350
.L361:
	ldr	r1, .L363
	mov	r0, #1
	bl	dprint_vfmw
	mvn	r0, #0
	b	.L350
.L364:
	.align	2
.L363:
	.word	.LC47
	UNWIND(.fnend)
	.size	HEVC_Sei_User_Data_Unregistered, .-HEVC_Sei_User_Data_Unregistered
	.align	2
	.global	HEVC_IsRefListWrong
	.type	HEVC_IsRefListWrong, %function
HEVC_IsRefListWrong:
	UNWIND(.fnstart)
	@ args = 0, pretend = 0, frame = 0
	@ frame_needed = 1, uses_anonymous_args = 0
	UNWIND(.movsp ip)
	mov	ip, sp
	stmfd	sp!, {r4, r5, r6, r7, fp, ip, lr, pc}
	UNWIND(.pad #4)
	UNWIND(.save {r4, r5, r6, r7, fp, ip, lr})
	UNWIND(.setfp fp, ip, #-4)
	sub	fp, ip, #4
	UNWIND(.pad #8)
	sub	sp, sp, #8
	add	r7, r0, #4096
	mov	r5, r0
	ldr	r3, [r7, #196]
	cmp	r3, #0
	beq	.L366
	ldr	r4, [r0, #2428]
	cmp	r4, #0
	beq	.L367
	ldr	r2, [r4, #16]
	cmp	r2, #0
	addne	r6, r0, #2416
	movne	r4, #0
	addne	r6, r6, #12
	bne	.L372
	b	.L410
.L373:
	ldr	r3, [ip, #28]
	cmp	r3, #0
	beq	.L374
	ldr	r3, [r7, #196]
	add	r4, r4, #1
	cmp	r4, r3
	bcs	.L411
	ldr	r2, [r6, #4]!
	cmp	r2, #0
	beq	.L367
	ldr	r2, [r2, #16]
	cmp	r2, #0
	beq	.L368
.L372:
	ldr	r1, [r2, #28]
	ldr	r0, [r5, #252]
	bl	FSP_GetLogicFs
	subs	ip, r0, #0
	bne	.L373
.L374:
	add	r5, r5, r4, lsl #2
	mov	r2, r4
	ldr	r1, .L415
	mov	r0, #1
	ldr	r3, [r5, #2428]
	ldr	r3, [r3, #16]
	str	ip, [sp]
	bl	dprint_vfmw
.L371:
	mvn	r0, #0
	sub	sp, fp, #28
	ldmfd	sp, {r4, r5, r6, r7, fp, sp, pc}
.L411:
	cmp	r3, #0
	beq	.L366
	ldr	r2, [r7, #200]
	cmp	r2, #0
	beq	.L366
	ldr	r4, [r5, #2496]
	cmp	r4, #0
	beq	.L379
	ldr	r2, [r4, #16]
	cmp	r2, #0
	addne	r6, r5, #2496
	movne	r4, #0
	bne	.L383
	b	.L412
.L384:
	ldr	r3, [r0, #28]
	cmp	r3, #0
	beq	.L385
	ldr	r3, [r7, #200]
	add	r4, r4, #1
	cmp	r4, r3
	bcs	.L366
	ldr	r3, [r6, #4]!
	cmp	r3, #0
	beq	.L413
	ldr	r2, [r3, #16]
	cmp	r2, #0
	beq	.L414
.L383:
	ldr	r1, [r2, #28]
	ldr	r0, [r5, #252]
	bl	FSP_GetLogicFs
	cmp	r0, #0
	bne	.L384
.L385:
	mov	r3, r0
	mov	r2, r4
	ldr	r1, .L415+4
	mov	r0, #1
	bl	dprint_vfmw
	mvn	r0, #0
	b	.L405
.L366:
	mov	r0, #0
.L405:
	sub	sp, fp, #28
	ldmfd	sp, {r4, r5, r6, r7, fp, sp, pc}
.L367:
	mov	r2, r4
	ldr	r1, .L415+8
	mov	r0, #1
	bl	dprint_vfmw
	b	.L371
.L410:
	mov	r4, r2
.L368:
	mov	r2, r4
	ldr	r1, .L415+12
	mov	r0, #1
	bl	dprint_vfmw
	b	.L371
.L413:
	ldr	r3, [r7, #196]
.L379:
	mov	r2, r4
	ldr	r1, .L415+16
	mov	r0, #1
	bl	dprint_vfmw
	mvn	r0, #0
	b	.L405
.L414:
	ldr	r3, [r7, #196]
.L380:
	mov	r2, r4
	ldr	r1, .L415+20
	mov	r0, #1
	bl	dprint_vfmw
	mvn	r0, #0
	b	.L405
.L412:
	mov	r4, r2
	b	.L380
.L416:
	.align	2
.L415:
	.word	.LC50
	.word	.LC53
	.word	.LC48
	.word	.LC49
	.word	.LC51
	.word	.LC52
	UNWIND(.fnend)
	.size	HEVC_IsRefListWrong, .-HEVC_IsRefListWrong
	.align	2
	.global	HEVC_GetUnRefPicWithMinPoc
	.type	HEVC_GetUnRefPicWithMinPoc, %function
HEVC_GetUnRefPicWithMinPoc:
	UNWIND(.fnstart)
	@ args = 0, pretend = 0, frame = 0
	@ frame_needed = 1, uses_anonymous_args = 0
	UNWIND(.movsp ip)
	mov	ip, sp
	stmfd	sp!, {r4, r5, fp, ip, lr, pc}
	UNWIND(.pad #4)
	UNWIND(.save {r4, r5, fp, ip, lr})
	UNWIND(.setfp fp, ip, #-4)
	sub	fp, ip, #4
	UNWIND(.pad #8)
	sub	sp, sp, #8
	mvn	r4, #0
	str	r4, [r1]
	ldr	r3, [r0, #2600]
	cmp	r3, #16
	bhi	.L418
	cmp	r3, #0
	addne	lr, r0, #2608
	mvnne	r5, #-2147483648
	addne	lr, lr, #8
	movne	r2, #0
	beq	.L420
.L423:
	ldr	ip, [lr, #4]!
	ldr	r4, [ip, #8]
	cmp	r4, r5
	bge	.L422
	ldr	ip, [ip]
	bic	ip, ip, #-16777216
	bic	ip, ip, #255
	cmp	ip, #0
	streq	r2, [r1]
	ldreq	r3, [r0, #2600]
	moveq	r5, r4
.L422:
	add	r2, r2, #1
	cmp	r3, r2
	bhi	.L423
	ldr	r3, [r1]
	cmn	r3, #1
	beq	.L420
	str	r5, [sp]
	mov	r0, #1
	ldr	r2, .L426
	ldr	r1, .L426+4
	bl	dprint_vfmw
	mov	r0, #0
.L421:
	sub	sp, fp, #20
	ldmfd	sp, {r4, r5, fp, sp, pc}
.L418:
	ldr	r2, .L426
	mov	r0, #1
	ldr	r1, .L426+8
	bl	dprint_vfmw
	mov	r0, r4
	b	.L421
.L420:
	ldr	r2, .L426
	mov	r0, #1
	ldr	r1, .L426+12
	bl	dprint_vfmw
	mvn	r0, #0
	b	.L421
.L427:
	.align	2
.L426:
	.word	.LANCHOR0+176
	.word	.LC56
	.word	.LC54
	.word	.LC55
	UNWIND(.fnend)
	.size	HEVC_GetUnRefPicWithMinPoc, .-HEVC_GetUnRefPicWithMinPoc
	.align	2
	.global	HEVC_IncreaseDPBSize
	.type	HEVC_IncreaseDPBSize, %function
HEVC_IncreaseDPBSize:
	UNWIND(.fnstart)
	@ args = 0, pretend = 0, frame = 0
	@ frame_needed = 1, uses_anonymous_args = 0
	UNWIND(.movsp ip)
	mov	ip, sp
	stmfd	sp!, {r4, r5, fp, ip, lr, pc}
	UNWIND(.pad #4)
	UNWIND(.save {r4, r5, fp, ip, lr})
	UNWIND(.setfp fp, ip, #-4)
	sub	fp, ip, #4
	UNWIND(.pad #8)
	sub	sp, sp, #8
	ldr	r3, [r0, #2596]
	mov	r4, r0
	cmp	r3, #16
	bhi	.L432
	ldr	r0, [r0, #252]
	bl	FSP_GetTotalValidFsNum
	ldr	r2, [r4, #252]
	ldr	r1, [r4, #3544]
	mov	r5, r0
	ldr	r0, [r4, #3540]
	bl	FSP_GetOccupiedNum
	rsb	r0, r0, r5
	bic	r0, r0, r0, asr #31
	cmp	r0, #0
	ble	.L431
	ldr	r3, [r4, #2596]
	add	r3, r3, #1
	cmp	r0, r3
	bcc	.L431
	str	r3, [r4, #2596]
	mov	r0, #13
	ldr	r2, .L433
	ldr	r1, .L433+4
	bl	dprint_vfmw
	mov	r0, #0
.L430:
	sub	sp, fp, #20
	ldmfd	sp, {r4, r5, fp, sp, pc}
.L431:
	mov	r3, r0
	ldr	r2, .L433
	ldr	r1, .L433+8
	mov	r0, #1
	bl	dprint_vfmw
	mvn	r0, #0
	b	.L430
.L432:
	mov	r5, #17
	ldr	r2, .L433
	mov	r0, #1
	str	r5, [sp]
	ldr	r1, .L433+12
	bl	dprint_vfmw
	str	r5, [r4, #2596]
	mvn	r0, #0
	b	.L430
.L434:
	.align	2
.L433:
	.word	.LANCHOR0+204
	.word	.LC58
	.word	.LC59
	.word	.LC57
	UNWIND(.fnend)
	.size	HEVC_IncreaseDPBSize, .-HEVC_IncreaseDPBSize
	.align	2
	.global	HEVC_PicType
	.type	HEVC_PicType, %function
HEVC_PicType:
	UNWIND(.fnstart)
	@ args = 0, pretend = 0, frame = 0
	@ frame_needed = 1, uses_anonymous_args = 0
	UNWIND(.movsp ip)
	mov	ip, sp
	stmfd	sp!, {fp, ip, lr, pc}
	UNWIND(.pad #4)
	UNWIND(.save {fp, ip, lr})
	UNWIND(.setfp fp, ip, #-4)
	sub	fp, ip, #4
	ldr	r3, [r0, #3524]
	sub	r3, r3, #16
	cmp	r3, #5
	bls	.L439
	add	r0, r0, #4096
	ldr	r0, [r0, #148]
	cmp	r0, #0
	subne	r0, r0, #1
	clzne	r0, r0
	movne	r0, r0, lsr #5
	moveq	r0, #2
	ldmfd	sp, {fp, sp, pc}
.L439:
	mov	r0, #0
	ldmfd	sp, {fp, sp, pc}
	UNWIND(.fnend)
	.size	HEVC_PicType, .-HEVC_PicType
	.align	2
	.global	HEVC_PicTypeStatistic
	.type	HEVC_PicTypeStatistic, %function
HEVC_PicTypeStatistic:
	UNWIND(.fnstart)
	@ args = 0, pretend = 0, frame = 0
	@ frame_needed = 1, uses_anonymous_args = 0
	UNWIND(.movsp ip)
	mov	ip, sp
	stmfd	sp!, {fp, ip, lr, pc}
	UNWIND(.pad #4)
	UNWIND(.save {fp, ip, lr})
	UNWIND(.setfp fp, ip, #-4)
	sub	fp, ip, #4
	add	r3, r0, #4096
	ldr	r2, [r3, #156]
	sub	r1, r2, #16
	cmp	r1, #5
	bls	.L442
	ldr	r2, [r0, #3524]
	sub	r2, r2, #16
	cmp	r2, #5
	bls	.L453
	ldr	r3, [r3, #148]
	cmp	r3, #1
	beq	.L445
	cmp	r3, #2
	beq	.L446
	cmp	r3, #0
	moveq	r3, #2
	streq	r3, [r0, #3536]
	ldmfd	sp, {fp, sp, pc}
.L442:
	mov	r3, #0
	str	r2, [r0, #3524]
	str	r3, [r0, #3536]
	ldmfd	sp, {fp, sp, pc}
.L445:
	ldr	r2, [r0, #3536]
	cmp	r2, #2
	beq	.L454
	str	r3, [r0, #3536]
	ldmfd	sp, {fp, sp, pc}
.L446:
	ldr	r3, [r0, #3536]
	sub	r3, r3, #1
	cmp	r3, #1
	movhi	r3, #0
	strhi	r3, [r0, #3536]
	ldmfd	sp, {fp, sp, pc}
.L454:
	ldmfd	sp, {fp, sp, pc}
.L453:
	ldmfd	sp, {fp, sp, pc}
	UNWIND(.fnend)
	.size	HEVC_PicTypeStatistic, .-HEVC_PicTypeStatistic
	.align	2
	.global	HEVC_IsReferenceNalu
	.type	HEVC_IsReferenceNalu, %function
HEVC_IsReferenceNalu:
	UNWIND(.fnstart)
	@ args = 0, pretend = 0, frame = 0
	@ frame_needed = 1, uses_anonymous_args = 0
	UNWIND(.movsp ip)
	mov	ip, sp
	stmfd	sp!, {fp, ip, lr, pc}
	UNWIND(.pad #4)
	UNWIND(.save {fp, ip, lr})
	UNWIND(.setfp fp, ip, #-4)
	sub	fp, ip, #4
	add	r0, r0, #4096
	ldr	r0, [r0, #156]
	cmp	r0, #15
	bhi	.L456
	tst	r0, #1
	bne	.L458
.L456:
	sub	r0, r0, #16
	cmp	r0, #7
	movhi	r0, #0
	movls	r0, #1
	ldmfd	sp, {fp, sp, pc}
.L458:
	mov	r0, #1
	ldmfd	sp, {fp, sp, pc}
	UNWIND(.fnend)
	.size	HEVC_IsReferenceNalu, .-HEVC_IsReferenceNalu
	.align	2
	.global	HEVC_WriteQmatrix_4x4
	.type	HEVC_WriteQmatrix_4x4, %function
HEVC_WriteQmatrix_4x4:
	UNWIND(.fnstart)
	@ args = 0, pretend = 0, frame = 0
	@ frame_needed = 1, uses_anonymous_args = 0
	UNWIND(.movsp ip)
	mov	ip, sp
	stmfd	sp!, {fp, ip, lr, pc}
	UNWIND(.pad #4)
	UNWIND(.save {fp, ip, lr})
	UNWIND(.setfp fp, ip, #-4)
	sub	fp, ip, #4
	add	r1, r1, r0, lsl #6
	ldr	r0, [r1, #616]
	ldr	r3, [r1, #620]
	ldrb	ip, [r1, #608]	@ zero_extendqisi2
	ldrb	lr, [r1, #612]	@ zero_extendqisi2
	mov	r0, r0, asl #8
	orr	r3, ip, r3, asl #24
	uxth	r0, r0
	orr	r3, r3, lr, asl #16
	orr	r3, r3, r0
	str	r3, [r2]
	ldr	r0, [r1, #616]
	ldrb	lr, [r1, #609]	@ zero_extendqisi2
	ldrb	r3, [r1, #621]	@ zero_extendqisi2
	and	r0, r0, #65280
	ldrb	ip, [r1, #613]	@ zero_extendqisi2
	orr	r0, lr, r0
	orr	r3, r0, r3, asl #24
	orr	r3, r3, ip, asl #16
	str	r3, [r2, #4]
	ldr	r0, [r1, #612]
	ldrb	lr, [r1, #610]	@ zero_extendqisi2
	ldrb	r3, [r1, #622]	@ zero_extendqisi2
	and	r0, r0, #16711680
	ldrb	ip, [r1, #618]	@ zero_extendqisi2
	orr	r0, lr, r0
	orr	r3, r0, r3, asl #24
	orr	r3, r3, ip, asl #8
	str	r3, [r2, #8]
	ldr	r0, [r1, #620]
	ldrb	r3, [r1, #615]	@ zero_extendqisi2
	ldrb	lr, [r1, #611]	@ zero_extendqisi2
	and	r0, r0, #-16777216
	ldrb	ip, [r1, #619]	@ zero_extendqisi2
	orr	r1, lr, r0
	orr	r3, r1, r3, asl #16
	orr	r3, r3, ip, asl #8
	str	r3, [r2, #12]
	ldmfd	sp, {fp, sp, pc}
	UNWIND(.fnend)
	.size	HEVC_WriteQmatrix_4x4, .-HEVC_WriteQmatrix_4x4
	.align	2
	.global	HEVC_WriteQmatrix_32x32
	.type	HEVC_WriteQmatrix_32x32, %function
HEVC_WriteQmatrix_32x32:
	UNWIND(.fnstart)
	@ args = 0, pretend = 0, frame = 0
	@ frame_needed = 1, uses_anonymous_args = 0
	UNWIND(.movsp ip)
	mov	ip, sp
	stmfd	sp!, {r4, fp, ip, lr, pc}
	UNWIND(.pad #4)
	UNWIND(.save {r4, fp, ip, lr})
	UNWIND(.setfp fp, ip, #-4)
	sub	fp, ip, #4
	add	lr, r0, #18
	add	r0, r1, r0, lsl #6
	add	lr, r1, lr, lsl #6
	ldr	r1, [r0, #1768]
	ldr	r3, [r0, #1784]
	ldrb	ip, [lr, #608]	@ zero_extendqisi2
	ldrb	r4, [r0, #1776]	@ zero_extendqisi2
	mov	r1, r1, asl #8
	orr	r3, ip, r3, asl #24
	uxth	r1, r1
	orr	r3, r3, r4, asl #16
	orr	r3, r3, r1
	str	r3, [r2]
	ldr	r1, [r0, #1800]
	ldr	r3, [r0, #1816]
	ldrb	ip, [r0, #1792]	@ zero_extendqisi2
	ldrb	r4, [r0, #1808]	@ zero_extendqisi2
	mov	r1, r1, asl #8
	orr	r3, ip, r3, asl #24
	uxth	r1, r1
	orr	r3, r3, r4, asl #16
	orr	r3, r3, r1
	str	r3, [r2, #4]
	ldr	r1, [r0, #1768]
	ldrb	r4, [lr, #609]	@ zero_extendqisi2
	ldrb	r3, [r0, #1785]	@ zero_extendqisi2
	and	r1, r1, #65280
	ldrb	ip, [r0, #1777]	@ zero_extendqisi2
	orr	r1, r4, r1
	orr	r3, r1, r3, asl #24
	orr	r3, r3, ip, asl #16
	str	r3, [r2, #8]
	ldr	r1, [r0, #1800]
	ldrb	r4, [r0, #1793]	@ zero_extendqisi2
	ldrb	r3, [r0, #1817]	@ zero_extendqisi2
	and	r1, r1, #65280
	ldrb	ip, [r0, #1809]	@ zero_extendqisi2
	orr	r1, r4, r1
	orr	r3, r1, r3, asl #24
	orr	r3, r3, ip, asl #16
	str	r3, [r2, #12]
	ldr	ip, [r0, #1776]
	ldrb	r4, [lr, #610]	@ zero_extendqisi2
	ldrb	r3, [r0, #1786]	@ zero_extendqisi2
	and	ip, ip, #16711680
	ldrb	r1, [r0, #1770]	@ zero_extendqisi2
	orr	ip, r4, ip
	orr	r3, ip, r3, asl #24
	orr	r3, r3, r1, asl #8
	str	r3, [r2, #16]
	ldr	ip, [r0, #1808]
	ldrb	r4, [r0, #1794]	@ zero_extendqisi2
	ldrb	r3, [r0, #1818]	@ zero_extendqisi2
	and	ip, ip, #16711680
	ldrb	r1, [r0, #1802]	@ zero_extendqisi2
	orr	ip, r4, ip
	orr	r3, ip, r3, asl #24
	orr	r3, r3, r1, asl #8
	str	r3, [r2, #20]
	ldr	r1, [r0, #1784]
	ldrb	lr, [lr, #611]	@ zero_extendqisi2
	ldrb	r3, [r0, #1779]	@ zero_extendqisi2
	and	r1, r1, #-16777216
	ldrb	ip, [r0, #1771]	@ zero_extendqisi2
	orr	r1, lr, r1
	orr	r3, r1, r3, asl #16
	orr	r3, r3, ip, asl #8
	str	r3, [r2, #24]
	ldr	r1, [r0, #1816]
	ldrb	lr, [r0, #1795]	@ zero_extendqisi2
	ldrb	r3, [r0, #1811]	@ zero_extendqisi2
	and	r1, r1, #-16777216
	ldrb	ip, [r0, #1803]	@ zero_extendqisi2
	orr	r1, lr, r1
	orr	r3, r1, r3, asl #16
	orr	r3, r3, ip, asl #8
	str	r3, [r2, #28]
	ldr	r1, [r0, #1772]
	ldr	r3, [r0, #1788]
	ldrb	ip, [r0, #1764]	@ zero_extendqisi2
	ldrb	lr, [r0, #1780]	@ zero_extendqisi2
	mov	r1, r1, asl #8
	orr	r3, ip, r3, asl #24
	uxth	r1, r1
	orr	r3, r3, lr, asl #16
	orr	r3, r3, r1
	str	r3, [r2, #32]
	ldr	r1, [r0, #1804]
	ldr	r3, [r0, #1820]
	ldrb	ip, [r0, #1796]	@ zero_extendqisi2
	ldrb	lr, [r0, #1812]	@ zero_extendqisi2
	mov	r1, r1, asl #8
	orr	r3, ip, r3, asl #24
	uxth	r1, r1
	orr	r3, r3, lr, asl #16
	orr	r3, r3, r1
	str	r3, [r2, #36]
	ldr	r1, [r0, #1772]
	ldrb	lr, [r0, #1765]	@ zero_extendqisi2
	ldrb	r3, [r0, #1789]	@ zero_extendqisi2
	and	r1, r1, #65280
	ldrb	ip, [r0, #1781]	@ zero_extendqisi2
	orr	r1, lr, r1
	orr	r3, r1, r3, asl #24
	orr	r3, r3, ip, asl #16
	str	r3, [r2, #40]
	ldr	r1, [r0, #1804]
	ldrb	lr, [r0, #1797]	@ zero_extendqisi2
	ldrb	r3, [r0, #1821]	@ zero_extendqisi2
	and	r1, r1, #65280
	ldrb	ip, [r0, #1813]	@ zero_extendqisi2
	orr	r1, lr, r1
	orr	r3, r1, r3, asl #24
	orr	r3, r3, ip, asl #16
	str	r3, [r2, #44]
	ldr	r1, [r0, #1780]
	ldrb	lr, [r0, #1766]	@ zero_extendqisi2
	ldrb	r3, [r0, #1790]	@ zero_extendqisi2
	and	r1, r1, #16711680
	ldrb	ip, [r0, #1774]	@ zero_extendqisi2
	orr	r1, lr, r1
	orr	r3, r1, r3, asl #24
	orr	r3, r3, ip, asl #8
	str	r3, [r2, #48]
	ldr	r1, [r0, #1812]
	ldrb	lr, [r0, #1798]	@ zero_extendqisi2
	ldrb	r3, [r0, #1822]	@ zero_extendqisi2
	and	r1, r1, #16711680
	ldrb	ip, [r0, #1806]	@ zero_extendqisi2
	orr	r1, lr, r1
	orr	r3, r1, r3, asl #24
	orr	r3, r3, ip, asl #8
	str	r3, [r2, #52]
	ldr	r1, [r0, #1788]
	ldrb	lr, [r0, #1767]	@ zero_extendqisi2
	ldrb	r3, [r0, #1783]	@ zero_extendqisi2
	and	r1, r1, #-16777216
	ldrb	ip, [r0, #1775]	@ zero_extendqisi2
	orr	r1, lr, r1
	orr	r3, r1, r3, asl #16
	orr	r3, r3, ip, asl #8
	str	r3, [r2, #56]
	ldr	r1, [r0, #1820]
	ldrb	ip, [r0, #1799]	@ zero_extendqisi2
	ldrb	r3, [r0, #1815]	@ zero_extendqisi2
	and	r1, r1, #-16777216
	ldrb	r0, [r0, #1807]	@ zero_extendqisi2
	orr	r1, ip, r1
	orr	r3, r1, r3, asl #16
	orr	r3, r3, r0, asl #8
	str	r3, [r2, #60]
	ldmfd	sp, {r4, fp, sp, pc}
	UNWIND(.fnend)
	.size	HEVC_WriteQmatrix_32x32, .-HEVC_WriteQmatrix_32x32
	.align	2
	.global	HEVC_WriteQmatrix_8x8
	.type	HEVC_WriteQmatrix_8x8, %function
HEVC_WriteQmatrix_8x8:
	UNWIND(.fnstart)
	@ args = 0, pretend = 0, frame = 0
	@ frame_needed = 1, uses_anonymous_args = 0
	UNWIND(.movsp ip)
	mov	ip, sp
	stmfd	sp!, {r4, fp, ip, lr, pc}
	UNWIND(.pad #4)
	UNWIND(.save {r4, fp, ip, lr})
	UNWIND(.setfp fp, ip, #-4)
	sub	fp, ip, #4
	add	lr, r0, #6
	add	r0, r1, r0, lsl #6
	add	lr, r1, lr, lsl #6
	ldr	r1, [r0, #1008]
	ldr	r3, [r0, #1040]
	ldrb	ip, [lr, #608]	@ zero_extendqisi2
	ldrb	r4, [r0, #1024]	@ zero_extendqisi2
	mov	r1, r1, asl #8
	orr	r3, ip, r3, asl #24
	uxth	r1, r1
	orr	r3, r3, r4, asl #16
	orr	r3, r3, r1
	str	r3, [r2]
	ldr	r1, [r0, #1016]
	ldr	r3, [r0, #1048]
	ldrb	ip, [r0, #1000]	@ zero_extendqisi2
	ldrb	r4, [r0, #1032]	@ zero_extendqisi2
	mov	r1, r1, asl #8
	orr	r3, ip, r3, asl #24
	uxth	r1, r1
	orr	r3, r3, r4, asl #16
	orr	r3, r3, r1
	str	r3, [r2, #4]
	ldr	r1, [r0, #1008]
	ldrb	r4, [lr, #609]	@ zero_extendqisi2
	ldrb	r3, [r0, #1041]	@ zero_extendqisi2
	and	r1, r1, #65280
	ldrb	ip, [r0, #1025]	@ zero_extendqisi2
	orr	r1, r4, r1
	orr	r3, r1, r3, asl #24
	orr	r3, r3, ip, asl #16
	str	r3, [r2, #8]
	ldr	r1, [r0, #1016]
	ldrb	r4, [r0, #1001]	@ zero_extendqisi2
	ldrb	r3, [r0, #1049]	@ zero_extendqisi2
	and	r1, r1, #65280
	ldrb	ip, [r0, #1033]	@ zero_extendqisi2
	orr	r1, r4, r1
	orr	r3, r1, r3, asl #24
	orr	r3, r3, ip, asl #16
	str	r3, [r2, #12]
	ldr	ip, [r0, #1024]
	ldrb	r4, [lr, #610]	@ zero_extendqisi2
	ldrb	r3, [r0, #1042]	@ zero_extendqisi2
	and	ip, ip, #16711680
	ldrb	r1, [r0, #1010]	@ zero_extendqisi2
	orr	ip, r4, ip
	orr	r3, ip, r3, asl #24
	orr	r3, r3, r1, asl #8
	str	r3, [r2, #16]
	ldr	ip, [r0, #1032]
	ldrb	r4, [r0, #1002]	@ zero_extendqisi2
	ldrb	r3, [r0, #1050]	@ zero_extendqisi2
	and	ip, ip, #16711680
	ldrb	r1, [r0, #1018]	@ zero_extendqisi2
	orr	ip, r4, ip
	orr	r3, ip, r3, asl #24
	orr	r3, r3, r1, asl #8
	str	r3, [r2, #20]
	ldr	r1, [r0, #1040]
	ldrb	lr, [lr, #611]	@ zero_extendqisi2
	ldrb	r3, [r0, #1027]	@ zero_extendqisi2
	and	r1, r1, #-16777216
	ldrb	ip, [r0, #1011]	@ zero_extendqisi2
	orr	r1, lr, r1
	orr	r3, r1, r3, asl #16
	orr	r3, r3, ip, asl #8
	str	r3, [r2, #24]
	ldr	r1, [r0, #1048]
	ldrb	lr, [r0, #1003]	@ zero_extendqisi2
	ldrb	r3, [r0, #1035]	@ zero_extendqisi2
	and	r1, r1, #-16777216
	ldrb	ip, [r0, #1019]	@ zero_extendqisi2
	orr	r1, lr, r1
	orr	r3, r1, r3, asl #16
	orr	r3, r3, ip, asl #8
	str	r3, [r2, #28]
	ldr	r1, [r0, #1012]
	ldr	r3, [r0, #1044]
	ldrb	ip, [r0, #996]	@ zero_extendqisi2
	ldrb	lr, [r0, #1028]	@ zero_extendqisi2
	mov	r1, r1, asl #8
	orr	r3, ip, r3, asl #24
	uxth	r1, r1
	orr	r3, r3, lr, asl #16
	orr	r3, r3, r1
	str	r3, [r2, #32]
	ldr	r1, [r0, #1020]
	ldr	r3, [r0, #1052]
	ldrb	ip, [r0, #1004]	@ zero_extendqisi2
	ldrb	lr, [r0, #1036]	@ zero_extendqisi2
	mov	r1, r1, asl #8
	orr	r3, ip, r3, asl #24
	uxth	r1, r1
	orr	r3, r3, lr, asl #16
	orr	r3, r3, r1
	str	r3, [r2, #36]
	ldr	r1, [r0, #1012]
	ldrb	lr, [r0, #997]	@ zero_extendqisi2
	ldrb	r3, [r0, #1045]	@ zero_extendqisi2
	and	r1, r1, #65280
	ldrb	ip, [r0, #1029]	@ zero_extendqisi2
	orr	r1, lr, r1
	orr	r3, r1, r3, asl #24
	orr	r3, r3, ip, asl #16
	str	r3, [r2, #40]
	ldr	r1, [r0, #1020]
	ldrb	lr, [r0, #1005]	@ zero_extendqisi2
	ldrb	r3, [r0, #1053]	@ zero_extendqisi2
	and	r1, r1, #65280
	ldrb	ip, [r0, #1037]	@ zero_extendqisi2
	orr	r1, lr, r1
	orr	r3, r1, r3, asl #24
	orr	r3, r3, ip, asl #16
	str	r3, [r2, #44]
	ldr	r1, [r0, #1028]
	ldrb	lr, [r0, #998]	@ zero_extendqisi2
	ldrb	r3, [r0, #1046]	@ zero_extendqisi2
	and	r1, r1, #16711680
	ldrb	ip, [r0, #1014]	@ zero_extendqisi2
	orr	r1, lr, r1
	orr	r3, r1, r3, asl #24
	orr	r3, r3, ip, asl #8
	str	r3, [r2, #48]
	ldr	r1, [r0, #1036]
	ldrb	lr, [r0, #1006]	@ zero_extendqisi2
	ldrb	r3, [r0, #1054]	@ zero_extendqisi2
	and	r1, r1, #16711680
	ldrb	ip, [r0, #1022]	@ zero_extendqisi2
	orr	r1, lr, r1
	orr	r3, r1, r3, asl #24
	orr	r3, r3, ip, asl #8
	str	r3, [r2, #52]
	ldr	r1, [r0, #1044]
	ldrb	lr, [r0, #999]	@ zero_extendqisi2
	ldrb	r3, [r0, #1031]	@ zero_extendqisi2
	and	r1, r1, #-16777216
	ldrb	ip, [r0, #1015]	@ zero_extendqisi2
	orr	r1, lr, r1
	orr	r3, r1, r3, asl #16
	orr	r3, r3, ip, asl #8
	str	r3, [r2, #56]
	ldr	r1, [r0, #1052]
	ldrb	ip, [r0, #1007]	@ zero_extendqisi2
	ldrb	r3, [r0, #1039]	@ zero_extendqisi2
	and	r1, r1, #-16777216
	ldrb	r0, [r0, #1023]	@ zero_extendqisi2
	orr	r1, ip, r1
	orr	r3, r1, r3, asl #16
	orr	r3, r3, r0, asl #8
	str	r3, [r2, #60]
	ldmfd	sp, {r4, fp, sp, pc}
	UNWIND(.fnend)
	.size	HEVC_WriteQmatrix_8x8, .-HEVC_WriteQmatrix_8x8
	.align	2
	.global	HEVC_WriteQmatrix_16x16
	.type	HEVC_WriteQmatrix_16x16, %function
HEVC_WriteQmatrix_16x16:
	UNWIND(.fnstart)
	@ args = 0, pretend = 0, frame = 0
	@ frame_needed = 1, uses_anonymous_args = 0
	UNWIND(.movsp ip)
	mov	ip, sp
	stmfd	sp!, {r4, fp, ip, lr, pc}
	UNWIND(.pad #4)
	UNWIND(.save {r4, fp, ip, lr})
	UNWIND(.setfp fp, ip, #-4)
	sub	fp, ip, #4
	add	lr, r0, #12
	add	r0, r1, r0, lsl #6
	add	lr, r1, lr, lsl #6
	ldr	r1, [r0, #1384]
	ldr	r3, [r0, #1400]
	ldrb	ip, [lr, #608]	@ zero_extendqisi2
	ldrb	r4, [r0, #1392]	@ zero_extendqisi2
	mov	r1, r1, asl #8
	orr	r3, ip, r3, asl #24
	uxth	r1, r1
	orr	r3, r3, r4, asl #16
	orr	r3, r3, r1
	str	r3, [r2]
	ldr	r1, [r0, #1416]
	ldr	r3, [r0, #1432]
	ldrb	ip, [r0, #1408]	@ zero_extendqisi2
	ldrb	r4, [r0, #1424]	@ zero_extendqisi2
	mov	r1, r1, asl #8
	orr	r3, ip, r3, asl #24
	uxth	r1, r1
	orr	r3, r3, r4, asl #16
	orr	r3, r3, r1
	str	r3, [r2, #4]
	ldr	r1, [r0, #1384]
	ldrb	r4, [lr, #609]	@ zero_extendqisi2
	ldrb	r3, [r0, #1401]	@ zero_extendqisi2
	and	r1, r1, #65280
	ldrb	ip, [r0, #1393]	@ zero_extendqisi2
	orr	r1, r4, r1
	orr	r3, r1, r3, asl #24
	orr	r3, r3, ip, asl #16
	str	r3, [r2, #8]
	ldr	r1, [r0, #1416]
	ldrb	r4, [r0, #1409]	@ zero_extendqisi2
	ldrb	r3, [r0, #1433]	@ zero_extendqisi2
	and	r1, r1, #65280
	ldrb	ip, [r0, #1425]	@ zero_extendqisi2
	orr	r1, r4, r1
	orr	r3, r1, r3, asl #24
	orr	r3, r3, ip, asl #16
	str	r3, [r2, #12]
	ldr	ip, [r0, #1392]
	ldrb	r4, [lr, #610]	@ zero_extendqisi2
	ldrb	r3, [r0, #1402]	@ zero_extendqisi2
	and	ip, ip, #16711680
	ldrb	r1, [r0, #1386]	@ zero_extendqisi2
	orr	ip, r4, ip
	orr	r3, ip, r3, asl #24
	orr	r3, r3, r1, asl #8
	str	r3, [r2, #16]
	ldr	ip, [r0, #1424]
	ldrb	r4, [r0, #1410]	@ zero_extendqisi2
	ldrb	r3, [r0, #1434]	@ zero_extendqisi2
	and	ip, ip, #16711680
	ldrb	r1, [r0, #1418]	@ zero_extendqisi2
	orr	ip, r4, ip
	orr	r3, ip, r3, asl #24
	orr	r3, r3, r1, asl #8
	str	r3, [r2, #20]
	ldr	r1, [r0, #1400]
	ldrb	lr, [lr, #611]	@ zero_extendqisi2
	ldrb	r3, [r0, #1395]	@ zero_extendqisi2
	and	r1, r1, #-16777216
	ldrb	ip, [r0, #1387]	@ zero_extendqisi2
	orr	r1, lr, r1
	orr	r3, r1, r3, asl #16
	orr	r3, r3, ip, asl #8
	str	r3, [r2, #24]
	ldr	r1, [r0, #1432]
	ldrb	lr, [r0, #1411]	@ zero_extendqisi2
	ldrb	r3, [r0, #1427]	@ zero_extendqisi2
	and	r1, r1, #-16777216
	ldrb	ip, [r0, #1419]	@ zero_extendqisi2
	orr	r1, lr, r1
	orr	r3, r1, r3, asl #16
	orr	r3, r3, ip, asl #8
	str	r3, [r2, #28]
	ldr	r1, [r0, #1388]
	ldr	r3, [r0, #1404]
	ldrb	ip, [r0, #1380]	@ zero_extendqisi2
	ldrb	lr, [r0, #1396]	@ zero_extendqisi2
	mov	r1, r1, asl #8
	orr	r3, ip, r3, asl #24
	uxth	r1, r1
	orr	r3, r3, lr, asl #16
	orr	r3, r3, r1
	str	r3, [r2, #32]
	ldr	r1, [r0, #1420]
	ldr	r3, [r0, #1436]
	ldrb	ip, [r0, #1412]	@ zero_extendqisi2
	ldrb	lr, [r0, #1428]	@ zero_extendqisi2
	mov	r1, r1, asl #8
	orr	r3, ip, r3, asl #24
	uxth	r1, r1
	orr	r3, r3, lr, asl #16
	orr	r3, r3, r1
	str	r3, [r2, #36]
	ldr	r1, [r0, #1388]
	ldrb	lr, [r0, #1381]	@ zero_extendqisi2
	ldrb	r3, [r0, #1405]	@ zero_extendqisi2
	and	r1, r1, #65280
	ldrb	ip, [r0, #1397]	@ zero_extendqisi2
	orr	r1, lr, r1
	orr	r3, r1, r3, asl #24
	orr	r3, r3, ip, asl #16
	str	r3, [r2, #40]
	ldr	r1, [r0, #1420]
	ldrb	lr, [r0, #1413]	@ zero_extendqisi2
	ldrb	r3, [r0, #1437]	@ zero_extendqisi2
	and	r1, r1, #65280
	ldrb	ip, [r0, #1429]	@ zero_extendqisi2
	orr	r1, lr, r1
	orr	r3, r1, r3, asl #24
	orr	r3, r3, ip, asl #16
	str	r3, [r2, #44]
	ldr	r1, [r0, #1396]
	ldrb	lr, [r0, #1382]	@ zero_extendqisi2
	ldrb	r3, [r0, #1406]	@ zero_extendqisi2
	and	r1, r1, #16711680
	ldrb	ip, [r0, #1390]	@ zero_extendqisi2
	orr	r1, lr, r1
	orr	r3, r1, r3, asl #24
	orr	r3, r3, ip, asl #8
	str	r3, [r2, #48]
	ldr	r1, [r0, #1428]
	ldrb	lr, [r0, #1414]	@ zero_extendqisi2
	ldrb	r3, [r0, #1438]	@ zero_extendqisi2
	and	r1, r1, #16711680
	ldrb	ip, [r0, #1422]	@ zero_extendqisi2
	orr	r1, lr, r1
	orr	r3, r1, r3, asl #24
	orr	r3, r3, ip, asl #8
	str	r3, [r2, #52]
	ldr	r1, [r0, #1404]
	ldrb	lr, [r0, #1383]	@ zero_extendqisi2
	ldrb	r3, [r0, #1399]	@ zero_extendqisi2
	and	r1, r1, #-16777216
	ldrb	ip, [r0, #1391]	@ zero_extendqisi2
	orr	r1, lr, r1
	orr	r3, r1, r3, asl #16
	orr	r3, r3, ip, asl #8
	str	r3, [r2, #56]
	ldr	r1, [r0, #1436]
	ldrb	ip, [r0, #1415]	@ zero_extendqisi2
	ldrb	r3, [r0, #1431]	@ zero_extendqisi2
	and	r1, r1, #-16777216
	ldrb	r0, [r0, #1423]	@ zero_extendqisi2
	orr	r1, ip, r1
	orr	r3, r1, r3, asl #16
	orr	r3, r3, r0, asl #8
	str	r3, [r2, #60]
	ldmfd	sp, {r4, fp, sp, pc}
	UNWIND(.fnend)
	.size	HEVC_WriteQmatrix_16x16, .-HEVC_WriteQmatrix_16x16
	.global	__aeabi_idivmod
	.align	2
	.global	HEVC_CtbRsAddrToTsAddr
	.type	HEVC_CtbRsAddrToTsAddr, %function
HEVC_CtbRsAddrToTsAddr:
	UNWIND(.fnstart)
	@ args = 0, pretend = 0, frame = 200
	@ frame_needed = 1, uses_anonymous_args = 0
	UNWIND(.movsp ip)
	mov	ip, sp
	stmfd	sp!, {r4, r5, r6, r7, r8, r9, r10, fp, ip, lr, pc}
	UNWIND(.pad #4)
	UNWIND(.save {r4, r5, r6, r7, r8, r9, r10, fp, ip, lr})
	UNWIND(.setfp fp, ip, #-4)
	sub	fp, ip, #4
	UNWIND(.pad #204)
	sub	sp, sp, #204
	ldr	ip, [r0, #2404]
	mov	r6, r1
	ldrb	r3, [ip, #13]	@ zero_extendqisi2
	cmp	r3, #0
	beq	.L498
	ldr	r3, [ip, #72]
	ldr	r7, [ip, #68]
	ldrb	r5, [ip, #15]	@ zero_extendqisi2
	mov	r2, r3
	str	r3, [fp, #-236]
	ldr	r3, [r0, #2400]
	cmp	r2, #0
	sub	r8, r2, #1
	sub	r2, r7, #1
	str	r2, [fp, #-240]
	ldr	r4, [r3, #64]
	ldr	r1, [r3, #128]
	ble	.L469
	ldr	r3, [fp, #-236]
	add	r2, ip, #210
	sub	r0, fp, #216
	add	lr, r3, #105
	add	lr, ip, lr, lsl #1
.L468:
	ldrsh	r3, [r2, #2]!
	cmp	r2, lr
	sub	r3, r3, #1
	str	r3, [r0, #4]!
	bne	.L468
.L469:
	cmp	r7, #0
	ble	.L467
	add	r3, r7, #85
	add	r2, ip, #170
	sub	r0, fp, #128
	add	ip, ip, r3, lsl #1
.L472:
	ldrsh	r3, [r2, #2]!
	cmp	r2, ip
	sub	r3, r3, #1
	str	r3, [r0, #4]!
	bne	.L472
.L467:
	mov	r10, #1
	mov	r0, r4
	mov	r10, r10, asl r1
	mov	r1, r10
	bl	__aeabi_idiv
	mov	r1, r10
	mov	r9, r0
	mov	r0, r4
	bl	__aeabi_idivmod
	mov	r0, r6
	cmp	r1, #0
	addne	r9, r9, #1
	mov	r1, r9
	bl	__aeabi_idivmod
	mov	r0, r6
	mov	r4, r1
	mov	r1, r9
	bl	__aeabi_idiv
	cmp	r5, #0
	beq	.L513
	cmp	r8, #0
	mov	r3, #0
	blt	.L489
	sub	r10, fp, #212
	mov	lr, r3
	mov	r6, r3
	mov	r8, r3
	str	r3, [fp, #-232]
	str	r3, [fp, #-244]
.L475:
	ldr	r2, [fp, #-240]
	cmp	r2, #0
	blt	.L492
	ldr	r8, [r10]
	mov	r2, #0
	ldr	r3, [fp, #-232]
	mov	ip, r2
	add	r8, r8, #1
	sub	r5, fp, #128
	mov	r6, lr
	add	r9, r3, r8
	b	.L478
.L490:
	mov	r6, lr
.L478:
	ldr	r3, [r5, #4]!
	add	ip, ip, #1
	add	r3, r3, #1
	add	r1, r2, r3
	cmp	r4, r1
	mla	lr, r8, r3, lr
	bge	.L476
	cmp	r0, r9
	blt	.L510
.L476:
	cmp	ip, r7
	mov	r2, r1
	bne	.L490
.L481:
	add	r2, r1, r3
	cmp	r4, r2
	bge	.L491
	cmp	r0, r9
	blt	.L508
.L491:
	ldr	r2, [fp, #-244]
	add	r10, r10, #4
	ldr	ip, [fp, #-236]
	add	r2, r2, #1
	str	r9, [fp, #-232]
	cmp	r2, ip
	str	r2, [fp, #-244]
	bne	.L475
.L509:
	rsb	r0, r9, r0
	mov	r2, r1
	mul	r3, r0, r3
.L473:
	rsb	r2, r2, r4
	add	r3, r2, r3
	add	r6, r3, r6
.L498:
	mov	r0, r6
	sub	sp, fp, #40
	ldmfd	sp, {r4, r5, r6, r7, r8, r9, r10, fp, sp, pc}
.L513:
	cmp	r8, #0
	mov	r3, r5
	blt	.L489
	ldr	r2, [fp, #-240]
	sub	r10, fp, #212
	str	r5, [fp, #-232]
	mov	lr, r5
	cmp	r2, #0
	str	r5, [fp, #-244]
	mov	r6, r5
	mov	r8, r5
	blt	.L495
.L514:
	ldr	r8, [r10]
	mov	r2, #0
	ldr	r3, [fp, #-232]
	mov	ip, r2
	add	r8, r8, #1
	sub	r5, fp, #128
	mov	r6, lr
	add	r9, r3, r8
	b	.L484
.L493:
	mov	r6, lr
.L484:
	ldr	r3, [r5, #4]!
	add	ip, ip, #1
	add	r3, r3, #1
	add	r1, r2, r3
	cmp	r4, r1
	mla	lr, r8, r3, lr
	bge	.L482
	cmp	r0, r9
	blt	.L483
.L482:
	cmp	ip, r7
	mov	r2, r1
	bne	.L493
.L487:
	add	r2, r1, r3
	cmp	r4, r2
	bge	.L507
	cmp	r0, r9
	blt	.L508
.L507:
	ldr	r2, [fp, #-244]
	add	r10, r10, #4
	ldr	ip, [fp, #-236]
	add	r2, r2, #1
	str	r9, [fp, #-232]
	cmp	r2, ip
	str	r2, [fp, #-244]
	beq	.L509
	ldr	r2, [fp, #-240]
	cmp	r2, #0
	bge	.L514
.L495:
	ldr	r2, [fp, #-232]
	mov	r1, #0
	add	r9, r2, r8
	b	.L487
.L510:
	ldr	r1, [fp, #-232]
	rsb	r0, r1, r0
	mul	r3, r0, r3
	b	.L473
.L483:
	cmp	r1, r4
	bgt	.L510
	mov	r1, r2
	b	.L507
.L492:
	ldr	r2, [fp, #-232]
	mov	r1, #0
	add	r9, r2, r8
	b	.L481
.L508:
	ldr	r2, [fp, #-232]
	rsb	r0, r2, r0
	mov	r2, r1
	mul	r3, r0, r3
	b	.L473
.L489:
	mov	r2, r3
	mov	r6, r3
	b	.L473
	UNWIND(.fnend)
	.size	HEVC_CtbRsAddrToTsAddr, .-HEVC_CtbRsAddrToTsAddr
	.align	2
	.global	HEVC_CtbTsAddrToRsAddr
	.type	HEVC_CtbTsAddrToRsAddr, %function
HEVC_CtbTsAddrToRsAddr:
	UNWIND(.fnstart)
	@ args = 0, pretend = 0, frame = 200
	@ frame_needed = 1, uses_anonymous_args = 0
	UNWIND(.movsp ip)
	mov	ip, sp
	stmfd	sp!, {r4, r5, r6, r7, r8, r9, r10, fp, ip, lr, pc}
	UNWIND(.pad #4)
	UNWIND(.save {r4, r5, r6, r7, r8, r9, r10, fp, ip, lr})
	UNWIND(.setfp fp, ip, #-4)
	sub	fp, ip, #4
	UNWIND(.pad #204)
	sub	sp, sp, #204
	ldr	lr, [r0, #2404]
	mov	r6, r1
	ldrb	r3, [lr, #13]	@ zero_extendqisi2
	cmp	r3, #0
	moveq	r0, r1
	beq	.L539
	ldr	r3, [lr, #72]
	ldr	r7, [lr, #68]
	mov	r2, r3
	str	r3, [fp, #-232]
	ldr	r3, [r0, #2400]
	cmp	r2, #0
	ldr	r4, [r3, #64]
	ldr	ip, [r3, #128]
	ble	.L521
	ldr	r3, [fp, #-232]
	add	r2, lr, #210
	sub	r1, fp, #216
	add	r0, r3, #105
	add	r0, lr, r0, lsl #1
.L520:
	ldrsh	r3, [r2, #2]!
	cmp	r2, r0
	sub	r3, r3, #1
	str	r3, [r1, #4]!
	bne	.L520
.L521:
	cmp	r7, #0
	ble	.L519
	add	r0, r7, #85
	add	r2, lr, #170
	sub	r1, fp, #128
	add	r0, lr, r0, lsl #1
.L524:
	ldrsh	r3, [r2, #2]!
	cmp	r2, r0
	sub	r3, r3, #1
	str	r3, [r1, #4]!
	bne	.L524
.L519:
	mov	r5, #1
	mov	r0, r4
	mov	r5, r5, asl ip
	mov	r1, r5
	bl	__aeabi_idiv
	mov	r1, r5
	mov	r8, r0
	mov	r0, r4
	bl	__aeabi_idivmod
	ldr	r3, [fp, #-232]
	cmp	r1, #0
	addne	r8, r8, #1
	cmp	r3, #0
	str	r8, [fp, #-240]
	ble	.L523
	mov	r8, #0
	ldr	r2, [fp, #-124]
	sub	r9, fp, #212
	mov	r10, r8
	mov	r3, r8
	mov	lr, r8
	mov	r0, r8
	mov	r4, r8
	add	r2, r2, #1
	str	r2, [fp, #-236]
.L525:
	cmp	r7, #0
	ble	.L535
	ldr	r0, [r9]
	ldr	r4, [fp, #-236]
	add	r0, r0, #1
	mla	r1, r0, r4, r3
	cmp	r6, r1
	blt	.L536
	mov	r5, #0
	mov	lr, r3
	mov	r2, r5
	mov	r3, r1
	sub	ip, fp, #124
	b	.L530
.L527:
	ldr	r4, [ip, #4]!
	mov	lr, r3
	add	r4, r4, #1
	mla	r1, r0, r4, r3
	cmp	r1, r6
	bgt	.L528
	mov	r3, r1
.L530:
	add	r2, r2, #1
	add	r5, r5, r4
	cmp	r2, r7
	bne	.L527
.L529:
	cmp	r3, r6
	bgt	.L534
	ldr	r2, [fp, #-232]
	add	r10, r10, #1
	add	r8, r8, r0
	add	r9, r9, #4
	cmp	r10, r2
	bne	.L525
.L534:
	mov	r3, lr
.L528:
	cmp	r4, #0
	beq	.L523
	rsb	r6, r3, r6
	mov	r1, r4
	mov	r0, r6
	bl	__aeabi_idiv
	ldr	r3, [fp, #-240]
	mov	r1, r4
	add	r4, r0, r8
	mov	r0, r6
	mul	r4, r4, r3
	bl	__aeabi_idivmod
	add	r1, r1, r5
	add	r0, r4, r1
.L539:
	sub	sp, fp, #40
	ldmfd	sp, {r4, r5, r6, r7, r8, r9, r10, fp, sp, pc}
.L535:
	mov	r5, #0
	b	.L529
.L536:
	ldr	r4, [fp, #-236]
	mov	r5, #0
	b	.L528
.L523:
	ldr	r1, .L541
	mov	r0, #1
	bl	dprint_vfmw
	mvn	r0, #0
	b	.L539
.L542:
	.align	2
.L541:
	.word	.LC60
	UNWIND(.fnend)
	.size	HEVC_CtbTsAddrToRsAddr, .-HEVC_CtbTsAddrToRsAddr
	.align	2
	.global	HEVC_CalcTileMap
	.type	HEVC_CalcTileMap, %function
HEVC_CalcTileMap:
	UNWIND(.fnstart)
	@ args = 0, pretend = 0, frame = 40
	@ frame_needed = 1, uses_anonymous_args = 0
	UNWIND(.movsp ip)
	mov	ip, sp
	stmfd	sp!, {r4, r5, r6, r7, r8, r9, r10, fp, ip, lr, pc}
	UNWIND(.pad #4)
	UNWIND(.save {r4, r5, r6, r7, r8, r9, r10, fp, ip, lr})
	UNWIND(.setfp fp, ip, #-4)
	sub	fp, ip, #4
	UNWIND(.pad #44)
	sub	sp, sp, #44
	ldr	r4, .L570
	mov	r10, r0
	ldr	r0, [r4]
	cmp	r0, #0
	beq	.L569
	ldr	r5, .L570+4
	add	r0, r0, #471040
	mov	r2, #147456
	mov	r1, #0
	add	r0, r0, #372
	ldr	r3, [r5, #48]
	blx	r3
	ldr	r0, [r4]
	ldr	r3, [r5, #48]
	mov	r2, #36864
	add	r0, r0, #618496
	mov	r1, #0
	add	r0, r0, #372
	blx	r3
	add	r0, r10, #8576
	ldr	r3, [r5, #48]
	mov	r2, #880
	mov	r1, #0
	add	r0, r0, #60
	blx	r3
	add	r3, r10, #8192
	str	r3, [fp, #-60]
	mov	r2, r3
	mov	r3, #0
	str	r3, [r2, #440]
	ldr	r9, [r10, #2404]
	ldr	r1, [r10, #2400]
	ldr	r2, [r9, #72]
	ldr	r8, [r1, #188]
	cmp	r2, r3
	beq	.L546
	ldr	r2, [r4]
	str	r3, [fp, #-72]
	str	r3, [fp, #-76]
	str	r2, [fp, #-48]
.L547:
	ldr	r2, [r9, #68]
	cmp	r2, #0
	ldr	r2, [fp, #-72]
	add	r2, r2, #104
	streq	r2, [fp, #-80]
	beq	.L553
	mov	r1, r2
	str	r2, [fp, #-80]
	mov	r7, r1, asl #1
	ldr	r1, [fp, #-76]
	mov	r2, #0
	str	r2, [fp, #-52]
	str	r2, [fp, #-56]
	mul	r1, r8, r1
	ldr	r2, [fp, #-60]
	ldr	r2, [r2, #440]
	str	r1, [fp, #-68]
.L552:
	add	r1, r2, #1072
	add	r0, r9, r7
	add	r1, r1, #7
	add	r1, r10, r1, lsl #3
	str	r3, [r1, #4]
	ldrsh	r1, [r0, #4]
	cmp	r1, #0
	ldreq	r1, [fp, #-52]
	addeq	r1, r1, #84
	streq	r1, [fp, #-64]
	beq	.L548
	ldr	r2, [fp, #-52]
	mov	r5, #0
	ldr	r1, [fp, #-56]
	add	r2, r2, #84
	ldr	r0, [fp, #-68]
	str	r2, [fp, #-64]
	add	r6, r1, r0
	mov	ip, r2, asl #1
.L549:
	add	r2, r9, ip
	ldrsh	r2, [r2, #4]
	cmp	r2, #0
	beq	.L551
	add	r2, r3, #117760
	ldr	r1, [fp, #-48]
	add	r2, r2, #92
	rsb	lr, r3, r6
	mov	r4, r3
	add	r2, r1, r2, lsl #2
.L550:
	add	r1, lr, r3
	str	r1, [r2, #4]!
	ldr	r9, [r10, #2404]
	add	r3, r3, #1
	rsb	r1, r4, r3
	add	r0, r9, ip
	ldrsh	r0, [r0, #4]
	cmp	r0, r1
	bhi	.L550
.L551:
	add	r2, r9, r7
	add	r5, r5, #1
	add	r6, r6, r8
	ldrsh	r2, [r2, #4]
	cmp	r2, r5
	bhi	.L549
	ldr	r2, [fp, #-60]
	ldr	r2, [r2, #440]
.L548:
	add	r1, r10, r2, lsl #3
	ldr	r0, [fp, #-64]
	add	r1, r1, #8576
	sub	ip, r3, #1
	ldr	lr, [fp, #-52]
	add	r2, r2, #1
	str	ip, [r1, #64]
	add	r0, r9, r0, lsl #1
	ldr	r1, [fp, #-60]
	add	lr, lr, #1
	str	lr, [fp, #-52]
	str	r2, [r1, #440]
	ldr	r1, [r9, #68]
	ldrsh	r0, [r0, #4]
	cmp	r1, lr
	ldr	r1, [fp, #-56]
	add	r1, r1, r0
	str	r1, [fp, #-56]
	bhi	.L552
.L553:
	ldr	r2, [fp, #-80]
	ldr	r0, [fp, #-72]
	ldr	r1, [r9, #72]
	add	r2, r9, r2, lsl #1
	add	r0, r0, #1
	cmp	r1, r0
	ldr	r1, [fp, #-76]
	ldrsh	r2, [r2, #4]
	str	r0, [fp, #-72]
	add	r2, r1, r2
	str	r2, [fp, #-76]
	bhi	.L547
.L546:
	mov	r0, #0
	sub	sp, fp, #40
	ldmfd	sp, {r4, r5, r6, r7, r8, r9, r10, fp, sp, pc}
.L569:
	ldr	r2, .L570+8
	ldr	r1, .L570+12
	bl	dprint_vfmw
	mvn	r0, #0
	sub	sp, fp, #40
	ldmfd	sp, {r4, r5, r6, r7, r8, r9, r10, fp, sp, pc}
.L571:
	.align	2
.L570:
	.word	.LANCHOR1
	.word	vfmw_Osal_Func_Ptr_S
	.word	.LANCHOR0+228
	.word	.LC61
	UNWIND(.fnend)
	.size	HEVC_CalcTileMap, .-HEVC_CalcTileMap
	.align	2
	.global	HEVC_WritePicMsg
	.type	HEVC_WritePicMsg, %function
HEVC_WritePicMsg:
	UNWIND(.fnstart)
	@ args = 0, pretend = 0, frame = 0
	@ frame_needed = 1, uses_anonymous_args = 0
	UNWIND(.movsp ip)
	mov	ip, sp
	stmfd	sp!, {r4, r5, r6, r7, r8, r9, fp, ip, lr, pc}
	UNWIND(.pad #4)
	UNWIND(.save {r4, r5, r6, r7, r8, r9, fp, ip, lr})
	UNWIND(.setfp fp, ip, #-4)
	sub	fp, ip, #4
	mov	r4, r0
	ldr	r3, [r0, #3556]
	ldr	r2, [r4, #3732]
	mov	r0, #2
	ldr	r1, .L595
	add	r5, r4, #4096
	bl	dprint_vfmw
	ldr	r1, .L595+4
	mov	r0, #4
	mov	r7, #200
	bl	dprint_vfmw
	ldr	r3, [r4, #3528]
	add	r8, r4, #8192
	mov	ip, #0
	ldr	r6, .L595+8
	add	r0, r4, #6016
	str	r3, [r5, #1872]
	add	r0, r0, #48
	ldr	r2, [r4, #3696]
	mul	r7, r7, r3
	str	r2, [r5, #3136]
	mov	r2, #64
	ldr	r3, [r4, #3700]
	str	r3, [r5, #3140]
	ldr	r3, [r4, #3620]
	ldr	r1, [r4, #3624]
	rsb	r1, r3, r1
	str	r1, [r5, #3144]
	ldr	lr, [r4, #3732]
	add	r1, r7, #12672
	add	r1, r1, #8
	add	r1, r4, r1
	str	lr, [r5, #3128]
	ldr	lr, [r4, #3556]
	str	lr, [r5, #3132]
	ldr	lr, [r4, #3720]
	str	lr, [r5, #3148]
	ldr	lr, [r4, #3724]
	str	lr, [r5, #3152]
	ldr	lr, [r4, #3728]
	str	lr, [r5, #3156]
	ldr	lr, [r4, #3628]
	rsb	r3, r3, lr
	str	r3, [r5, #3160]
	ldr	r3, [r4, #3632]
	rsb	r3, lr, r3
	str	r3, [r5, #3164]
	ldr	r3, [r4, #2420]
	str	ip, [r4, #204]
	str	r3, [r8, #236]
	ldr	r3, [r4, #2400]
	ldrb	ip, [r3, #10]	@ zero_extendqisi2
	strb	ip, [r5, #1846]
	ldrb	ip, [r3, #3]	@ zero_extendqisi2
	strb	ip, [r5, #1847]
	ldrb	ip, [r3, #7]	@ zero_extendqisi2
	strb	ip, [r5, #1848]
	ldrb	ip, [r3, #6]	@ zero_extendqisi2
	strb	ip, [r5, #1849]
	ldrb	ip, [r3, #5]	@ zero_extendqisi2
	strb	ip, [r5, #1850]
	ldr	ip, [r3, #60]
	str	ip, [r5, #1852]
	ldr	ip, [r3, #104]
	strb	ip, [r5, #1856]
	ldr	ip, [r3, #192]
	sub	ip, ip, #1
	str	ip, [r5, #1860]
	ldr	ip, [r3, #188]
	sub	ip, ip, #1
	str	ip, [r5, #1864]
	ldr	ip, [r4, #3532]
	str	ip, [r5, #1868]
	ldr	ip, [r4, #2404]
	ldr	lr, [ip, #84]
	sub	lr, lr, #2
	str	lr, [r5, #1876]
	ldrb	lr, [ip, #11]	@ zero_extendqisi2
	strb	lr, [r5, #1880]
	ldrb	ip, [ip, #10]	@ zero_extendqisi2
	strb	ip, [r5, #1881]
	ldr	ip, [r3, #164]
	str	ip, [r5, #1884]
	ldr	ip, [r3, #168]
	str	ip, [r5, #1888]
	ldr	ip, [r3, #156]
	str	ip, [r5, #1892]
	ldr	ip, [r3, #160]
	str	ip, [r5, #1896]
	ldr	ip, [r3, #148]
	str	ip, [r5, #1900]
	ldr	ip, [r3, #152]
	str	ip, [r5, #1904]
	ldr	ip, [r3, #172]
	ldr	r6, [r6, #52]
	str	ip, [r5, #1908]
	ldr	ip, [r3, #124]
	str	ip, [r5, #1912]
	ldr	ip, [r3, #128]
	str	ip, [r5, #1916]
	ldr	ip, [r3, #100]
	str	ip, [r5, #1920]
	ldr	ip, [r3, #92]
	str	ip, [r5, #1924]
	ldr	ip, [r3, #112]
	str	ip, [r5, #1928]
	ldr	ip, [r3, #108]
	str	ip, [r5, #1932]
	ldr	ip, [r3, #96]
	str	ip, [r5, #1936]
	ldr	r3, [r3, #88]
	str	r3, [r5, #1940]
	blx	r6
	ldr	ip, [r4, #2400]
	add	r3, r4, #8256
	add	r2, r4, #8128
	add	r1, r4, #7616
	add	r3, r3, #12
	ldr	lr, [ip, #68]
	add	r2, r2, #60
	add	r1, r1, #60
	mov	r0, r4
	str	lr, [r5, #2032]
	ldr	ip, [ip, #64]
	str	ip, [r5, #2036]
	bl	HEVC_CalcTileInfo
	subs	r6, r0, #0
	bne	.L593
	ldr	r3, [r4, #2404]
	ldrb	r2, [r3, #16]	@ zero_extendqisi2
	strb	r2, [r5, #2060]
	ldrb	r2, [r3, #7]	@ zero_extendqisi2
	strb	r2, [r5, #2061]
	ldrb	r2, [r3, #3]	@ zero_extendqisi2
	strb	r2, [r5, #2062]
	ldrb	r2, [r3, #14]	@ zero_extendqisi2
	strb	r2, [r5, #2063]
	ldrb	r2, [r3, #15]	@ zero_extendqisi2
	strb	r2, [r5, #2064]
	ldrb	r2, [r3, #13]	@ zero_extendqisi2
	strb	r2, [r5, #2065]
	ldr	r2, [r4, #2400]
	ldr	r1, [r3, #56]
	ldr	r2, [r2, #128]
	rsb	r2, r1, r2
	str	r2, [r5, #2068]
	ldr	r2, [r3, #52]
	str	r2, [r5, #2072]
	ldrb	r2, [r3, #8]	@ zero_extendqisi2
	strb	r2, [r5, #2076]
	ldrb	r2, [r3, #12]	@ zero_extendqisi2
	strb	r2, [r5, #2077]
	ldrb	r2, [r3, #6]	@ zero_extendqisi2
	strb	r2, [r5, #2078]
	ldr	r2, [r3, #60]
	str	r2, [r5, #2080]
	ldr	r2, [r3, #64]
	str	r2, [r5, #2084]
	ldr	r2, [r3, #72]
	sub	r2, r2, #1
	str	r2, [r5, #2088]
	ldr	r2, [r3, #68]
	sub	r2, r2, #1
	str	r2, [r5, #2092]
	ldrb	r2, [r3, #10]	@ zero_extendqisi2
	strb	r2, [r5, #1881]
	ldrb	r3, [r3, #11]	@ zero_extendqisi2
	strb	r3, [r5, #1880]
	ldr	r3, [r4, #2344]
	str	r6, [r4, #2360]
	cmp	r3, #1
	beq	.L584
	ldr	r3, [r4, #3580]
	ldr	r0, [r4, #252]
	ldr	r1, [r3, #28]
	bl	FSP_GetLogicFs
	subs	r9, r0, #0
	beq	.L594
	ldr	r2, [r9, #28]
	ldr	r3, [r9, #32]
	cmp	r2, #0
	beq	.L577
	cmp	r3, #0
	beq	.L577
	add	r3, r4, #7488
	add	r2, r4, #7232
	add	r1, r4, #7360
	add	r3, r3, #60
	add	r2, r2, #48
	add	r1, r1, #48
	ldr	r0, [r4, #252]
	bl	FSP_GetDecFsAddrTab
	ldr	r3, [r9, #28]
	add	r2, r4, #7360
	add	r1, r4, #7488
	add	r2, r2, #52
	add	r1, r1, #52
	ldr	r3, [r3, #4]
	str	r3, [r5, #3128]
	ldr	r0, [r4, #252]
	bl	FSP_GetPmvAddrTab
	ldr	r2, [r4, #3556]
	add	r3, r4, r7
	add	r3, r3, #12544
	str	r2, [r5, #3132]
	ldr	r2, [r9, #12]
	str	r2, [r5, #3448]
	ldr	r2, [r9, #32]
	ldr	r2, [r2, #8]
	str	r2, [r8, #432]
	ldr	r2, [r9, #32]
	ldr	r2, [r2, #64]
	str	r2, [r8, #436]
	ldr	ip, [r3]
	cmp	ip, #0
	str	ip, [r8, #228]
	beq	.L579
	add	r3, r7, #12608
	add	r2, r4, #8320
	add	r3, r3, #4
	add	r2, r2, #32
	add	r3, r4, r3
	mov	r0, r6
.L580:
	add	r0, r0, #1
	ldr	r1, [r3, #4]!
	cmp	r0, ip
	str	r1, [r2, #4]!
	bne	.L580
.L579:
	add	r7, r4, #6144
	mov	r6, #0
	add	r7, r7, #52
.L581:
	mov	r2, r7
	mov	r0, r6
	mov	r1, r4
	add	r6, r6, #1
	bl	HEVC_WriteQmatrix_8x8
	cmp	r6, #4
	add	r7, r7, #64
	bne	.L581
	add	r2, r4, #6400
	mov	r0, r6
	add	r2, r2, #52
	mov	r1, r4
	bl	HEVC_WriteQmatrix_8x8
	add	r2, r4, #6464
	add	r2, r2, #52
	mov	r1, r4
	mov	r0, #5
	add	r7, r4, #6656
	bl	HEVC_WriteQmatrix_8x8
	add	r2, r4, #6528
	add	r2, r2, #52
	mov	r1, r4
	mov	r0, #0
	add	r7, r7, #52
	bl	HEVC_WriteQmatrix_16x16
	add	r2, r4, #6592
	add	r2, r2, #52
	mov	r1, r4
	mov	r0, #1
	mov	r6, #2
	bl	HEVC_WriteQmatrix_16x16
.L582:
	mov	r2, r7
	mov	r0, r6
	mov	r1, r4
	add	r6, r6, #1
	bl	HEVC_WriteQmatrix_16x16
	cmp	r6, #6
	add	r7, r7, #64
	bne	.L582
	add	r2, r4, #6912
	mov	r1, r4
	add	r2, r2, #52
	mov	r0, #0
	bl	HEVC_WriteQmatrix_32x32
	add	r2, r4, #6976
	add	r2, r2, #52
	mov	r1, r4
	mov	r0, #1
	add	r7, r4, #7040
	bl	HEVC_WriteQmatrix_32x32
	add	r7, r7, #52
	mov	r6, #0
.L583:
	mov	r2, r7
	mov	r0, r6
	mov	r1, r4
	add	r6, r6, #1
	bl	HEVC_WriteQmatrix_4x4
	cmp	r6, #6
	add	r7, r7, #16
	bne	.L583
	ldr	r1, [r4, #2296]
	mov	r0, #0
	ldr	r3, [r4, #2300]
	ldr	r2, [r4, #2288]
	ldr	ip, [r4, #2292]
	mov	r1, r1, asl #16
	orr	r3, r1, r3, asl #24
	orr	r3, r3, r2
	orr	r3, r3, ip, asl #8
	str	r3, [r5, #3092]
	ldr	r1, [r4, #2312]
	ldr	r3, [r4, #2316]
	ldr	r2, [r4, #2304]
	ldr	ip, [r4, #2308]
	mov	r1, r1, asl #16
	orr	r3, r1, r3, asl #24
	orr	r3, r3, r2
	orr	r3, r3, ip, asl #8
	str	r3, [r5, #3096]
	ldr	r3, [r4, #3556]
	str	r3, [r5, #3124]
	ldmfd	sp, {r4, r5, r6, r7, r8, r9, fp, sp, pc}
.L584:
	mov	r0, r6
	ldmfd	sp, {r4, r5, r6, r7, r8, r9, fp, sp, pc}
.L593:
	ldr	r2, .L595+12
	mov	r0, #1
	ldr	r1, .L595+16
	bl	dprint_vfmw
	mvn	r0, #0
	ldmfd	sp, {r4, r5, r6, r7, r8, r9, fp, sp, pc}
.L577:
	ldr	r1, .L595+20
	mov	r0, #1
	bl	dprint_vfmw
	mvn	r0, #0
	ldmfd	sp, {r4, r5, r6, r7, r8, r9, fp, sp, pc}
.L594:
	ldr	r3, [r4, #3580]
	mov	r0, #1
	ldr	r1, .L595+24
	ldr	r2, [r3, #28]
	bl	dprint_vfmw
	mvn	r0, #0
	ldmfd	sp, {r4, r5, r6, r7, r8, r9, fp, sp, pc}
.L596:
	.align	2
.L595:
	.word	.LC62
	.word	.LC63
	.word	vfmw_Osal_Func_Ptr_S
	.word	.LANCHOR0+248
	.word	.LC64
	.word	.LC66
	.word	.LC65
	UNWIND(.fnend)
	.size	HEVC_WritePicMsg, .-HEVC_WritePicMsg
	.align	2
	.global	HEVC_CheckListX
	.type	HEVC_CheckListX, %function
HEVC_CheckListX:
	UNWIND(.fnstart)
	@ args = 0, pretend = 0, frame = 0
	@ frame_needed = 1, uses_anonymous_args = 0
	UNWIND(.movsp ip)
	mov	ip, sp
	stmfd	sp!, {fp, ip, lr, pc}
	UNWIND(.pad #4)
	UNWIND(.save {fp, ip, lr})
	UNWIND(.setfp fp, ip, #-4)
	sub	fp, ip, #4
	add	r3, r0, #4096
	ldrb	r3, [r3, #129]	@ zero_extendqisi2
	cmp	r3, #0
	addeq	r3, r0, #4224
	beq	.L599
	ldrsb	r3, [r0, #11]
	cmp	r3, #0
	addne	r3, r0, #11136
	addne	r3, r3, #52
	beq	.L632
.L599:
	ldr	ip, [r3, #68]
	ldr	lr, [r3, #72]
	cmp	ip, #16
	bhi	.L633
	cmp	lr, #16
	bhi	.L603
	cmp	ip, #0
	beq	.L604
	ldr	r3, [r0, #2428]
	cmp	r3, #0
	beq	.L617
	ldr	r3, [r3, #16]
	cmp	r3, #0
	addne	r1, r0, #2416
	movne	r2, #0
	addne	r1, r1, #12
	bne	.L609
	b	.L634
.L610:
	ldr	r3, [r1, #4]!
	cmp	r3, #0
	beq	.L605
	ldr	r3, [r3, #16]
	cmp	r3, #0
	beq	.L606
.L609:
	add	r2, r2, #1
	cmp	r2, ip
	bne	.L610
.L604:
	cmp	lr, #0
	beq	.L629
	ldr	r3, [r0, #2496]
	cmp	r3, #0
	beq	.L620
	ldr	r3, [r3, #16]
	cmp	r3, #0
	addne	r0, r0, #2496
	movne	r2, #0
	bne	.L615
	b	.L635
.L616:
	ldr	r3, [r0, #4]!
	cmp	r3, #0
	beq	.L611
	ldr	r3, [r3, #16]
	cmp	r3, #0
	beq	.L612
.L615:
	add	r2, r2, #1
	cmp	r2, lr
	bne	.L616
.L629:
	mov	r0, #0
	ldmfd	sp, {fp, sp, pc}
.L617:
	mov	r2, r3
.L605:
	ldr	r1, .L636
	mov	r0, #0
	bl	dprint_vfmw
	mvn	r0, #0
	ldmfd	sp, {fp, sp, pc}
.L634:
	mov	r2, r3
.L606:
	ldr	r1, .L636+4
	mov	r0, #0
	bl	dprint_vfmw
	mvn	r0, #0
	ldmfd	sp, {fp, sp, pc}
.L620:
	mov	r2, r3
.L611:
	ldr	r1, .L636+8
	mov	r0, #0
	bl	dprint_vfmw
	mvn	r0, #0
	ldmfd	sp, {fp, sp, pc}
.L635:
	mov	r2, r3
.L612:
	ldr	r1, .L636+12
	mov	r0, #0
	bl	dprint_vfmw
	mvn	r0, #0
	ldmfd	sp, {fp, sp, pc}
.L632:
	mov	r0, r3
	ldr	r2, .L636+16
	ldr	r1, .L636+20
	bl	dprint_vfmw
	mvn	r0, #0
	ldmfd	sp, {fp, sp, pc}
.L603:
	mov	r2, lr
	mov	r3, #17
	ldr	r1, .L636+24
	mov	r0, #0
	bl	dprint_vfmw
	mvn	r0, #0
	ldmfd	sp, {fp, sp, pc}
.L633:
	mov	r2, ip
	mov	r3, #17
	ldr	r1, .L636+28
	mov	r0, #0
	bl	dprint_vfmw
	mvn	r0, #0
	ldmfd	sp, {fp, sp, pc}
.L637:
	.align	2
.L636:
	.word	.LC70
	.word	.LC71
	.word	.LC72
	.word	.LC73
	.word	.LANCHOR0+268
	.word	.LC67
	.word	.LC69
	.word	.LC68
	UNWIND(.fnend)
	.size	HEVC_CheckListX, .-HEVC_CheckListX
	.align	2
	.global	HEVC_WriteSliceMsg
	.type	HEVC_WriteSliceMsg, %function
HEVC_WriteSliceMsg:
	UNWIND(.fnstart)
	@ args = 0, pretend = 0, frame = 80
	@ frame_needed = 1, uses_anonymous_args = 0
	UNWIND(.movsp ip)
	mov	ip, sp
	stmfd	sp!, {r4, r5, r6, r7, r8, r9, r10, fp, ip, lr, pc}
	UNWIND(.pad #4)
	UNWIND(.save {r4, r5, r6, r7, r8, r9, r10, fp, ip, lr})
	UNWIND(.setfp fp, ip, #-4)
	sub	fp, ip, #4
	UNWIND(.pad #84)
	sub	sp, sp, #84
	ldr	r3, [r0, #3528]
	mov	r4, r0
	str	r3, [fp, #-116]
	bl	HEVC_CheckListX
	subs	r3, r0, #0
	str	r3, [fp, #-112]
	bne	.L679
	ldr	r0, [r4, #204]
	ldr	r3, [r4, #152]
	cmp	r0, r3
	bcs	.L712
	ldr	r6, [r4, #2420]
	mov	r5, #1360
	ldr	r7, [fp, #-112]
	mov	r2, r5
	ldr	r3, .L716
	add	r8, r4, #4096
	mla	r6, r5, r0, r6
	mov	r1, r7
	ldr	r3, [r3, #48]
	mov	r0, r6
	blx	r3
	ldr	r3, .L716
	mov	r2, #64
	mov	r1, r7
	sub	r0, fp, #108
	ldr	r3, [r3, #48]
	blx	r3
	ldr	r3, [r4, #204]
	ldr	r2, [r4, #152]
	add	r3, r3, #1
	str	r3, [r4, #204]
	cmp	r3, r2
	ldrcc	r2, [r4, #2420]
	ldrcs	r3, [fp, #-112]
	mlacc	r3, r5, r3, r2
	str	r3, [r6, #1356]
	ldr	r1, [r8, #164]
	ldr	r2, [r4, #2388]
	ldr	r0, [r4, #176]
	ldr	r3, [r4, #236]
	add	r0, r0, #1
	str	r1, [r4, #208]
	str	r0, [r4, #176]
	add	r3, r3, #1
	str	r3, [r4, #236]
	ldrb	r1, [r2]	@ zero_extendqisi2
	ldr	r3, [r2, #8]
	str	r0, [fp, #-120]
	cmp	r1, #1
	cmpls	r1, r3
	bcs	.L643
	add	r0, r6, r1, lsl #2
.L644:
	mov	r3, r1, asl #5
	sub	r3, r3, r1, asl #2
	add	r1, r1, #1
	add	r2, r2, r3
	ldr	r2, [r2, #56]
	str	r2, [r0, #8]
	ldr	r2, [r4, #2388]
	add	r2, r2, r3
	ldr	r2, [r2, #52]
	str	r2, [r0], #4
	ldr	r2, [r4, #2388]
	add	r3, r2, r3
	ldr	r3, [r3, #60]
	str	r3, [r0, #12]
	ldr	r2, [r4, #2388]
	ldr	r3, [r2, #8]
	cmp	r3, r1
	movhi	ip, #1
	movls	ip, #0
	cmp	r1, #1
	movhi	ip, #0
	cmp	ip, #0
	bne	.L644
.L643:
	cmp	r3, #1
	addls	r3, r6, r3, lsl #2
	addls	r1, r6, #8
	movls	r2, #0
	bhi	.L649
.L648:
	str	r2, [r3, #8]
	str	r2, [r3], #4
	cmp	r3, r1
	str	r2, [r3, #12]
	bne	.L648
.L649:
	ldrb	r3, [r8, #129]	@ zero_extendqisi2
	cmp	r3, #0
	beq	.L713
.L647:
	add	r5, r4, #8192
	ldr	r3, [r5, #3064]
	cmp	r3, #0
	beq	.L650
	add	ip, r4, #2416
	add	r10, r6, #112
	add	ip, ip, #8
	add	r9, r6, #368
	mov	r1, #0
	mov	lr, ip
.L651:
	ldr	r3, [ip, #4]!
	sub	r7, fp, #44
	add	r1, r1, #1
	ldr	r3, [r3, #4]
	str	r3, [r10, #4]!
	ldr	r0, [lr, #4]!
	ldr	r2, [r0, #16]
	ldr	r3, [r2, #20]
	ldr	r2, [r2, #24]
	add	r3, r3, #1840
	add	r3, r3, #12
	add	r2, r7, r2, lsl #2
	add	r3, r4, r3, lsl #2
	ldr	r3, [r3, #4]
	str	r3, [r2, #-64]
	ldr	r3, [r0, #16]
	ldr	r3, [r3, #24]
	str	r3, [r9, #4]!
	ldr	r3, [r5, #3064]
	cmp	r3, r1
	bhi	.L651
	ldr	r2, [r5, #3068]
	cmp	r2, #0
	beq	.L652
.L678:
	add	ip, r4, #2480
	add	r10, r6, #176
	add	ip, ip, #12
	add	r9, r6, #432
	mov	r1, #0
	mov	lr, ip
.L653:
	ldr	r3, [lr, #4]!
	sub	r7, fp, #44
	add	r1, r1, #1
	ldr	r3, [r3, #4]
	str	r3, [r10, #4]!
	ldr	r0, [ip, #4]!
	ldr	r2, [r0, #16]
	ldr	r3, [r2, #20]
	ldr	r2, [r2, #24]
	add	r3, r3, #1840
	add	r3, r3, #12
	add	r2, r7, r2, lsl #2
	add	r3, r4, r3, lsl #2
	ldr	r3, [r3, #4]
	str	r3, [r2, #-64]
	ldr	r3, [r0, #16]
	ldr	r3, [r3, #24]
	str	r3, [r9, #4]!
	ldr	r2, [r5, #3068]
	cmp	r2, r1
	bhi	.L653
	ldr	r3, [r5, #3064]
.L652:
	cmp	r3, #0
	beq	.L654
	ldr	r0, [fp, #-116]
	mov	lr, #50
	ldr	r1, [r6, #372]
	ldr	r9, [r4, #3532]
	mul	lr, lr, r0
	add	r1, lr, r1
	add	r1, r1, #3168
	add	r1, r1, #2
	ldr	r1, [r4, r1, asl #2]
	cmp	r9, r1
	blt	.L685
	add	ip, r6, #372
	mov	r0, #0
	b	.L656
.L657:
	ldr	r1, [ip, #4]!
	add	r1, lr, r1
	add	r1, r1, #3168
	add	r1, r1, #2
	ldr	r1, [r4, r1, asl #2]
	cmp	r1, r9
	bgt	.L685
.L656:
	add	r0, r0, #1
	cmp	r0, r3
	bne	.L657
.L654:
	ldr	r1, [r5, #3016]
	cmp	r1, #0
	bne	.L710
	cmp	r2, #0
	beq	.L710
	ldr	r0, [fp, #-116]
	mov	ip, #50
	ldr	r3, [r6, #436]
	ldr	lr, [r4, #3532]
	mul	ip, ip, r0
	add	r3, ip, r3
	add	r3, r3, #3168
	add	r3, r3, #2
	ldr	r3, [r4, r3, asl #2]
	cmp	lr, r3
	blt	.L655
	add	r0, r6, #436
	b	.L658
.L659:
	ldr	r3, [r0, #4]!
	add	r3, ip, r3
	add	r3, r3, #3168
	add	r3, r3, #2
	ldr	r3, [r4, r3, asl #2]
	cmp	r3, lr
	bgt	.L685
.L658:
	add	r1, r1, #1
	cmp	r1, r2
	bne	.L659
.L710:
	mov	r1, #1
.L655:
	strb	r1, [r6, #24]
	ldrb	r3, [r8, #129]	@ zero_extendqisi2
	strb	r3, [r6, #25]
	ldr	r3, [r5, #3012]
	str	r3, [r6, #28]
	ldrb	r2, [r5, #3003]	@ zero_extendqisi2
	strb	r2, [r6, #32]
	ldr	r2, [r5, #3036]
	str	r2, [r6, #36]
	ldr	r2, [r4, #2344]
	cmp	r2, #0
	bne	.L660
	ldr	r9, [r4, #3580]
	ldr	r1, [r4, #204]
	ldr	r0, [r9, #316]
	sub	r2, r1, #1
	mla	r0, r0, r2, r3
	bl	__aeabi_uidiv
	str	r0, [r9, #68]
.L660:
	ldr	r3, [r5, #3016]
	cmp	r3, #0
	bne	.L661
	ldrb	r3, [r5, #3004]	@ zero_extendqisi2
	cmp	r3, #0
	bne	.L662
	ldr	r3, [r5, #3040]
	add	r3, r6, r3, lsl #2
	ldr	r9, [r3, #436]
.L663:
	str	r9, [r6, #40]
	ldr	r3, [r5, #3040]
	str	r3, [r6, #48]
	ldrb	r3, [r5, #3004]	@ zero_extendqisi2
	strb	r3, [r6, #52]
	ldr	r3, [r5, #3044]
	str	r3, [r6, #44]
	ldr	r3, [r5, #3072]
	cmp	r3, #0
	subne	r3, r3, #1
	str	r3, [r6, #60]
	ldr	r3, [r5, #3076]
	cmp	r3, #0
	subne	r3, r3, #1
	str	r3, [r6, #56]
	ldrb	r3, [r5, #3000]	@ zero_extendqisi2
	strb	r3, [r6, #64]
	ldrb	r3, [r5, #3002]	@ zero_extendqisi2
	strb	r3, [r6, #65]
	ldr	r3, [r5, #3064]
	str	r3, [r6, #68]
	ldr	r3, [r5, #3068]
	str	r3, [r6, #72]
	ldr	r3, [r5, #3016]
	str	r3, [r6, #76]
	ldr	r3, [r8, #168]
	str	r3, [r6, #80]
	ldr	r3, [r4, #2400]
	ldr	r0, [r8, #168]
	ldr	r1, [r3, #188]
	bl	__aeabi_uidivmod
	str	r1, [r6, #84]
	ldr	r3, [r4, #2400]
	ldr	r0, [r8, #168]
	ldr	r1, [r3, #188]
	bl	__aeabi_uidiv
	str	r0, [r6, #88]
	mov	r0, r4
	ldr	r1, [r8, #168]
	bl	HEVC_CtbRsAddrToTsAddr
	str	r0, [r6, #92]
	ldr	r3, [r5, #3048]
	str	r3, [r6, #96]
	ldr	r3, [r5, #3052]
	str	r3, [r6, #100]
	ldr	r3, [r5, #3060]
	str	r3, [r6, #104]
	ldr	r3, [r5, #3056]
	str	r3, [r6, #108]
	ldrb	r3, [r5, #2999]	@ zero_extendqisi2
	strb	r3, [r6, #112]
	ldrb	r3, [r5, #2998]	@ zero_extendqisi2
	strb	r3, [r6, #113]
	ldrb	r3, [r5, #3005]	@ zero_extendqisi2
	strb	r3, [r6, #114]
	ldrb	r3, [r5, #3006]	@ zero_extendqisi2
	strb	r3, [r6, #115]
	ldr	r3, [r4, #2404]
	ldrb	r2, [r3, #10]	@ zero_extendqisi2
	cmp	r2, #0
	beq	.L668
	ldr	r2, [r5, #3016]
	cmp	r2, #1
	beq	.L669
.L668:
	ldrb	r3, [r3, #11]	@ zero_extendqisi2
	cmp	r3, #1
	beq	.L714
.L671:
	ldrb	r3, [r5, #3000]	@ zero_extendqisi2
	cmp	r3, #0
	subne	r3, fp, #44
	addne	r9, r3, r9, lsl #2
	ldreq	r3, [r8, #3316]
	ldrne	r3, [r9, #-64]
	str	r3, [r6, #564]
	ldr	r3, [r4, #2344]
	cmp	r3, #0
	ldreq	r1, [r4, #2388]
	ldreq	r2, [r4, #2408]
	ldreq	r0, [fp, #-120]
	streq	r1, [r2, r0, asl #2]
	streq	r3, [r4, #2388]
	ldrb	r3, [r8, #2065]	@ zero_extendqisi2
	cmp	r3, #0
	beq	.L693
	ldr	r3, [r4, #236]
	cmp	r3, #1
	beq	.L715
	add	r1, r4, r3, lsl #3
	ldr	r0, [r6, #92]
	add	r1, r1, #9472
	add	r2, r3, #1184
	add	r2, r2, #4
	sub	r0, r0, #1
	str	r0, [r1, #32]
	sub	r3, r3, #1
	ldr	r1, [r6, #92]
	add	r2, r4, r2, lsl #3
	str	r1, [r2, #4]
.L677:
	ldr	r1, [r8, #1864]
	add	r3, r4, r3, lsl #3
	ldr	r2, [r8, #1860]
	add	r3, r3, #9472
	mla	r2, r1, r2, r2
	add	r2, r2, r1
	str	r2, [r3, #48]
	ldr	r1, [r6, #92]
	sub	r1, r1, #1
	cmp	r1, #36864
	bcs	.L693
	mov	r0, r4
	bl	HEVC_CtbTsAddrToRsAddr
	str	r0, [r6, #568]
.L693:
	ldr	r0, [fp, #-112]
	sub	sp, fp, #40
	ldmfd	sp, {r4, r5, r6, r7, r8, r9, r10, fp, sp, pc}
.L685:
	mov	r1, #0
	b	.L655
.L661:
	cmp	r3, #1
	movne	r9, #0
	bne	.L663
.L662:
	ldr	r3, [r5, #3040]
	add	r3, r6, r3, lsl #2
	ldr	r9, [r3, #372]
	b	.L663
.L713:
	ldr	r3, .L716
	add	r0, r4, #11136
	add	r0, r0, #52
	movw	r2, #1356
	add	r1, r4, #4224
	ldr	r3, [r3, #52]
	blx	r3
	mov	r3, #1
	strb	r3, [r4, #11]
	b	.L647
.L714:
	ldr	r3, [r5, #3016]
	cmp	r3, #0
	bne	.L671
.L669:
	ldr	ip, [r5, #3152]
	add	r1, r4, #11456
	ldr	r3, .L716
	add	r1, r1, #24
	ldr	r10, .L716
	mov	r2, #64
	str	ip, [r6, #580]
	add	r0, r6, #588
	ldr	ip, [r5, #3284]
	ldr	r3, [r3, #52]
	str	ip, [r6, #584]
	blx	r3
	add	r1, r4, #11328
	add	r1, r1, #20
	ldr	r3, [r10, #52]
	mov	r2, #64
	add	r0, r6, #716
	blx	r3
	add	r1, r4, #11520
	add	r1, r1, #24
	ldr	r3, [r10, #52]
	mov	r2, #128
	add	r0, r6, #844
	blx	r3
	add	r1, r4, #11648
	add	r0, r6, #1088
	ldr	r3, [r10, #52]
	add	r1, r1, #24
	add	r0, r0, #12
	mov	r2, #128
	blx	r3
	ldr	r3, [r5, #3016]
	cmp	r3, #0
	bne	.L671
	add	r1, r4, #11776
	ldr	r3, [r10, #52]
	add	r1, r1, #24
	mov	r2, #64
	add	r0, r6, #652
	blx	r3
	add	r1, r4, #11392
	ldr	r3, [r10, #52]
	add	r1, r1, #20
	mov	r2, #64
	add	r0, r6, #780
	blx	r3
	add	r1, r4, #11840
	ldr	r3, [r10, #52]
	add	r1, r1, #24
	mov	r2, #128
	add	r0, r6, #972
	blx	r3
	add	r1, r4, #11968
	add	r0, r6, #1216
	ldr	r3, [r10, #52]
	add	r1, r1, #24
	mov	r2, #128
	add	r0, r0, #12
	blx	r3
	b	.L671
.L715:
	ldr	r2, [r6, #92]
	mov	r3, #0
	str	r2, [r5, #1324]
	b	.L677
.L650:
	ldr	r3, [r5, #3068]
	cmp	r3, #0
	bne	.L678
	b	.L710
.L679:
	mvn	r3, #0
	str	r3, [fp, #-112]
	b	.L693
.L712:
	mov	r2, r0
	ldr	r1, .L716+4
	mov	r0, #1
	bl	dprint_vfmw
	mvn	r3, #0
	str	r3, [fp, #-112]
	b	.L693
.L717:
	.align	2
.L716:
	.word	vfmw_Osal_Func_Ptr_S
	.word	.LC74
	UNWIND(.fnend)
	.size	HEVC_WriteSliceMsg, .-HEVC_WriteSliceMsg
	.align	2
	.global	HEVC_GetVirAddr
	.type	HEVC_GetVirAddr, %function
HEVC_GetVirAddr:
	UNWIND(.fnstart)
	@ args = 0, pretend = 0, frame = 0
	@ frame_needed = 1, uses_anonymous_args = 0
	UNWIND(.movsp ip)
	mov	ip, sp
	stmfd	sp!, {fp, ip, lr, pc}
	UNWIND(.pad #4)
	UNWIND(.save {fp, ip, lr})
	UNWIND(.setfp fp, ip, #-4)
	sub	fp, ip, #4
	add	r0, r1, r0, lsl #2
	ldmfd	sp, {fp, sp, pc}
	UNWIND(.fnend)
	.size	HEVC_GetVirAddr, .-HEVC_GetVirAddr
	.align	2
	.global	HEVC_GetPhyAddr
	.type	HEVC_GetPhyAddr, %function
HEVC_GetPhyAddr:
	UNWIND(.fnstart)
	@ args = 0, pretend = 0, frame = 0
	@ frame_needed = 1, uses_anonymous_args = 0
	UNWIND(.movsp ip)
	mov	ip, sp
	stmfd	sp!, {fp, ip, lr, pc}
	UNWIND(.pad #4)
	UNWIND(.save {fp, ip, lr})
	UNWIND(.setfp fp, ip, #-4)
	sub	fp, ip, #4
	add	r0, r1, r0, lsl #2
	ldmfd	sp, {fp, sp, pc}
	UNWIND(.fnend)
	.size	HEVC_GetPhyAddr, .-HEVC_GetPhyAddr
	.align	2
	.global	HEVC_CfgVDMReg
	.type	HEVC_CfgVDMReg, %function
HEVC_CfgVDMReg:
	UNWIND(.fnstart)
	@ args = 0, pretend = 0, frame = 0
	@ frame_needed = 1, uses_anonymous_args = 0
	UNWIND(.movsp ip)
	mov	ip, sp
	stmfd	sp!, {fp, ip, lr, pc}
	UNWIND(.pad #4)
	UNWIND(.save {fp, ip, lr})
	UNWIND(.setfp fp, ip, #-4)
	sub	fp, ip, #4
	ldr	r2, [r0, #3548]
	add	r1, r0, #4096
	mov	r3, r0
	add	ip, r0, #8192
	clz	r2, r2
	mov	r0, #0
	mov	r2, r2, lsr #5
	str	r2, [r1, #3180]
	ldr	r2, [r3, #3552]
	str	r2, [r1, #3172]
	ldr	r3, [r3, #204]
	str	r3, [ip, #232]
	ldmfd	sp, {fp, sp, pc}
	UNWIND(.fnend)
	.size	HEVC_CfgVDMReg, .-HEVC_CfgVDMReg
	.align	2
	.global	HEVC_IsRefForCurrPic
	.type	HEVC_IsRefForCurrPic, %function
HEVC_IsRefForCurrPic:
	UNWIND(.fnstart)
	@ args = 0, pretend = 0, frame = 8
	@ frame_needed = 1, uses_anonymous_args = 0
	UNWIND(.movsp ip)
	mov	ip, sp
	stmfd	sp!, {r4, r5, r6, r7, r8, r9, r10, fp, ip, lr, pc}
	UNWIND(.pad #4)
	UNWIND(.save {r4, r5, r6, r7, r8, r9, r10, fp, ip, lr})
	UNWIND(.setfp fp, ip, #-4)
	sub	fp, ip, #4
	UNWIND(.pad #28)
	sub	sp, sp, #28
	add	r5, r0, #4096
	mov	r4, r0
	ldr	r2, [r0, #164]
	ldr	r3, [r5, #164]
	cmp	r3, #0
	blt	.L723
	cmp	r3, r2
	bge	.L723
	ldr	r2, [r0, #2380]
	mov	r1, #1888
	mla	r3, r1, r3, r2
	ldr	r2, [r0, #160]
	ldr	r3, [r3, #32]
	cmp	r3, #0
	blt	.L727
	cmp	r3, r2
	bge	.L727
	ldr	r2, [r0, #2376]
	movw	r0, #12660
	ldr	ip, [r5, #1060]
	mov	r1, #1
	ldr	r10, [r5, #1064]
	mla	r2, r0, r3, r2
	ldr	r6, [r5, #1068]
	add	lr, r10, ip
	cmp	lr, r6
	mov	r3, lr
	ldr	r8, [r2, #116]
	mov	r8, r1, asl r8
	bcs	.L738
	cmp	lr, #15
	bgt	.L730
	add	r2, lr, #1312
	ldr	r7, [r4, #3532]
	add	r2, r2, #1
	sub	r8, r8, #1
	and	r9, r8, r7
	str	ip, [fp, #-48]
	add	r2, r4, r2, lsl #2
	b	.L732
.L749:
	cmp	r6, r3
	bls	.L748
	cmp	r3, #16
	beq	.L730
.L732:
	ldr	r1, [r2, #4]!
	mov	r0, r7
	add	r3, r3, #1
	ldr	ip, [r2, #-944]
	cmp	ip, #0
	andeq	r1, r1, r8
	moveq	r0, r9
	cmp	r0, r1
	bne	.L749
	ldr	ip, [fp, #-48]
	mov	r6, #1
.L729:
	cmp	lr, #0
	beq	.L725
	ldr	r0, [r5, #140]
	ldr	r3, [r5, #1092]
	ldr	r2, [r4, #3532]
	add	r3, r0, r3
	cmp	r2, r3
	beq	.L742
	add	r4, r4, #5184
	mov	r1, #0
	add	r4, r4, #4
	b	.L735
.L736:
	ldr	r3, [r4, #4]!
	add	r3, r0, r3
	cmp	r3, r2
	beq	.L742
.L735:
	add	r1, r1, #1
	cmp	r1, lr
	beq	.L725
	cmp	r1, #17
	bne	.L736
	mov	r3, r1
	str	r1, [sp]
	str	r10, [sp, #8]
	movw	r2, #9101
	str	ip, [sp, #4]
	mov	r0, #0
	ldr	r1, .L750
	bl	dprint_vfmw
	mov	r0, r6
	sub	sp, fp, #40
	ldmfd	sp, {r4, r5, r6, r7, r8, r9, r10, fp, sp, pc}
.L727:
	str	r2, [sp]
	mov	r0, #0
	movw	r2, #9052
	ldr	r1, .L750+4
	mov	r6, r0
	bl	dprint_vfmw
.L725:
	mov	r0, r6
	sub	sp, fp, #40
	ldmfd	sp, {r4, r5, r6, r7, r8, r9, r10, fp, sp, pc}
.L723:
	str	r2, [sp]
	mov	r0, #0
	movw	r2, #9040
	ldr	r1, .L750+8
	mov	r6, r0
	bl	dprint_vfmw
	mov	r0, r6
	sub	sp, fp, #40
	ldmfd	sp, {r4, r5, r6, r7, r8, r9, r10, fp, sp, pc}
.L730:
	str	r6, [sp, #4]
	mov	r1, #16
	mov	r0, #0
	str	r1, [sp]
	movw	r2, #9072
	ldr	r1, .L750+12
	mov	r6, r0
	bl	dprint_vfmw
	ldr	ip, [r5, #1060]
	ldr	r10, [r5, #1064]
	add	lr, r10, ip
	b	.L729
.L748:
	ldr	ip, [fp, #-48]
	mov	r6, #0
	b	.L729
.L742:
	mov	r6, #1
	b	.L725
.L738:
	mov	r6, #0
	b	.L729
.L751:
	.align	2
.L750:
	.word	.LC78
	.word	.LC76
	.word	.LC75
	.word	.LC77
	UNWIND(.fnend)
	.size	HEVC_IsRefForCurrPic, .-HEVC_IsRefForCurrPic
	.align	2
	.global	HEVC_IsPicVPSRefresh
	.type	HEVC_IsPicVPSRefresh, %function
HEVC_IsPicVPSRefresh:
	UNWIND(.fnstart)
	@ args = 0, pretend = 0, frame = 0
	@ frame_needed = 1, uses_anonymous_args = 0
	UNWIND(.movsp ip)
	mov	ip, sp
	stmfd	sp!, {fp, ip, lr, pc}
	UNWIND(.pad #4)
	UNWIND(.save {fp, ip, lr})
	UNWIND(.setfp fp, ip, #-4)
	sub	fp, ip, #4
	ldr	r2, [r0, #2396]
	ldr	r3, [r1, #4]
	ldr	r2, [r2, #4]
	cmp	r2, r3
	beq	.L755
	mov	r0, #1
	ldmfd	sp, {fp, sp, pc}
.L755:
	ldrb	r0, [r1, #2]	@ zero_extendqisi2
	adds	r0, r0, #0
	movne	r0, #1
	ldmfd	sp, {fp, sp, pc}
	UNWIND(.fnend)
	.size	HEVC_IsPicVPSRefresh, .-HEVC_IsPicVPSRefresh
	.align	2
	.global	HEVC_UpdatePicVPS
	.type	HEVC_UpdatePicVPS, %function
HEVC_UpdatePicVPS:
	UNWIND(.fnstart)
	@ args = 0, pretend = 0, frame = 0
	@ frame_needed = 1, uses_anonymous_args = 0
	UNWIND(.movsp ip)
	mov	ip, sp
	stmfd	sp!, {r4, r5, fp, ip, lr, pc}
	UNWIND(.pad #4)
	UNWIND(.save {r4, r5, fp, ip, lr})
	UNWIND(.setfp fp, ip, #-4)
	sub	fp, ip, #4
	mov	r2, #0
	strb	r2, [r1, #2]
	ldr	ip, [r0, #156]
	mov	r4, r0
	ldr	lr, .L757
	mov	r2, #132
	ldr	r0, [r0, #2372]
	mov	r3, ip, asl #7
	add	r3, r3, ip, lsl #2
	ldr	r5, [lr, #52]
	sub	r3, r3, #132
	add	r0, r0, r3
	blx	r5
	ldr	r3, [r4, #156]
	ldr	r1, [r4, #2372]
	mov	r2, r3, asl #7
	add	r3, r2, r3, lsl #2
	sub	r3, r3, #132
	add	r3, r1, r3
	str	r3, [r4, #2396]
	ldmfd	sp, {r4, r5, fp, sp, pc}
.L758:
	.align	2
.L757:
	.word	vfmw_Osal_Func_Ptr_S
	UNWIND(.fnend)
	.size	HEVC_UpdatePicVPS, .-HEVC_UpdatePicVPS
	.align	2
	.global	HEVC_IsPicSPSRefresh
	.type	HEVC_IsPicSPSRefresh, %function
HEVC_IsPicSPSRefresh:
	UNWIND(.fnstart)
	@ args = 0, pretend = 0, frame = 0
	@ frame_needed = 1, uses_anonymous_args = 0
	UNWIND(.movsp ip)
	mov	ip, sp
	stmfd	sp!, {fp, ip, lr, pc}
	UNWIND(.pad #4)
	UNWIND(.save {fp, ip, lr})
	UNWIND(.setfp fp, ip, #-4)
	sub	fp, ip, #4
	ldr	r2, [r0, #2400]
	ldr	r3, [r1, #56]
	ldr	r2, [r2, #56]
	cmp	r2, r3
	beq	.L762
	mov	r0, #1
	ldmfd	sp, {fp, sp, pc}
.L762:
	ldrb	r0, [r1]	@ zero_extendqisi2
	adds	r0, r0, #0
	movne	r0, #1
	ldmfd	sp, {fp, sp, pc}
	UNWIND(.fnend)
	.size	HEVC_IsPicSPSRefresh, .-HEVC_IsPicSPSRefresh
	.align	2
	.global	HEVC_UpdatePicSPS
	.type	HEVC_UpdatePicSPS, %function
HEVC_UpdatePicSPS:
	UNWIND(.fnstart)
	@ args = 0, pretend = 0, frame = 0
	@ frame_needed = 1, uses_anonymous_args = 0
	UNWIND(.movsp ip)
	mov	ip, sp
	stmfd	sp!, {r4, r5, r6, r7, fp, ip, lr, pc}
	UNWIND(.pad #4)
	UNWIND(.save {r4, r5, r6, r7, fp, ip, lr})
	UNWIND(.setfp fp, ip, #-4)
	sub	fp, ip, #4
	mov	r2, #0
	strb	r2, [r1]
	ldr	r3, [r0, #160]
	movw	r5, #12660
	ldr	ip, .L764
	mov	r4, r0
	ldr	r0, [r0, #2376]
	mov	r2, r5
	mul	r3, r5, r3
	ldr	r6, [ip, #52]
	sub	r3, r3, #12608
	sub	r3, r3, #52
	add	r0, r0, r3
	blx	r6
	ldr	r3, [r4, #160]
	ldr	r1, [r4, #2376]
	mul	r3, r5, r3
	sub	r3, r3, #12608
	sub	r3, r3, #52
	add	r3, r1, r3
	str	r3, [r4, #2400]
	ldr	r2, [r3, #56]
	str	r2, [r4, #264]
	ldr	r2, [r3, #64]
	str	r2, [r4, #268]
	ldr	r2, [r3, #68]
	str	r2, [r4, #272]
	ldr	r2, [r3, #128]
	str	r2, [r4, #276]
	ldr	r2, [r3, #88]
	str	r2, [r4, #280]
	ldr	r3, [r3, #96]
	str	r3, [r4, #284]
	ldmfd	sp, {r4, r5, r6, r7, fp, sp, pc}
.L765:
	.align	2
.L764:
	.word	vfmw_Osal_Func_Ptr_S
	UNWIND(.fnend)
	.size	HEVC_UpdatePicSPS, .-HEVC_UpdatePicSPS
	.align	2
	.global	HEVC_IsPicPPSRefresh
	.type	HEVC_IsPicPPSRefresh, %function
HEVC_IsPicPPSRefresh:
	UNWIND(.fnstart)
	@ args = 0, pretend = 0, frame = 0
	@ frame_needed = 1, uses_anonymous_args = 0
	UNWIND(.movsp ip)
	mov	ip, sp
	stmfd	sp!, {fp, ip, lr, pc}
	UNWIND(.pad #4)
	UNWIND(.save {fp, ip, lr})
	UNWIND(.setfp fp, ip, #-4)
	sub	fp, ip, #4
	ldr	r2, [r0, #2404]
	ldr	r3, [r1, #28]
	ldr	r2, [r2, #28]
	cmp	r2, r3
	beq	.L769
	mov	r0, #1
	ldmfd	sp, {fp, sp, pc}
.L769:
	ldrb	r0, [r1, #1]	@ zero_extendqisi2
	adds	r0, r0, #0
	movne	r0, #1
	ldmfd	sp, {fp, sp, pc}
	UNWIND(.fnend)
	.size	HEVC_IsPicPPSRefresh, .-HEVC_IsPicPPSRefresh
	.align	2
	.global	HEVC_UpdatePicPPS
	.type	HEVC_UpdatePicPPS, %function
HEVC_UpdatePicPPS:
	UNWIND(.fnstart)
	@ args = 0, pretend = 0, frame = 8
	@ frame_needed = 1, uses_anonymous_args = 0
	UNWIND(.movsp ip)
	mov	ip, sp
	stmfd	sp!, {r4, r5, r6, r7, r8, r9, r10, fp, ip, lr, pc}
	UNWIND(.pad #4)
	UNWIND(.save {r4, r5, r6, r7, r8, r9, r10, fp, ip, lr})
	UNWIND(.setfp fp, ip, #-4)
	sub	fp, ip, #4
	UNWIND(.pad #12)
	sub	sp, sp, #12
	ldrb	r3, [r2, #13]	@ zero_extendqisi2
	mov	r4, #0
	mov	r5, r2
	cmp	r3, r4
	mov	r6, r0
	mov	r7, r1
	strb	r4, [r2, #1]
	beq	.L771
	ldrb	r3, [r2, #15]	@ zero_extendqisi2
	cmp	r3, r4
	bne	.L789
	ldr	lr, [r2, #68]
	ldr	r3, [r1, #188]
	cmp	lr, #1
	add	r0, r2, lr, lsl #1
	strh	r3, [r0, #170]	@ movhi
	ble	.L783
	add	lr, lr, #42
	add	r2, r2, #86
	add	ip, r5, #170
	add	lr, r5, lr, lsl #1
.L782:
	ldrh	r1, [r2, #2]!
	cmp	r2, lr
	strh	r1, [ip, #2]!	@ movhi
	ldrh	r3, [r0, #170]
	rsb	r3, r1, r3
	strh	r3, [r0, #170]	@ movhi
	bne	.L782
.L783:
	ldr	lr, [r5, #72]
	ldr	r3, [r7, #192]
	cmp	lr, #1
	add	r0, r5, lr, lsl #1
	strh	r3, [r0, #210]	@ movhi
	ble	.L778
	add	lr, lr, #62
	add	r2, r5, #126
	add	ip, r5, #210
	add	lr, r5, lr, lsl #1
.L784:
	ldrh	r1, [r2, #2]!
	cmp	r2, lr
	strh	r1, [ip, #2]!	@ movhi
	ldrh	r3, [r0, #210]
	rsb	r3, r1, r3
	strh	r3, [r0, #210]	@ movhi
	bne	.L784
	b	.L778
.L771:
	ldr	r3, [r1, #188]
	strh	r3, [r2, #172]	@ movhi
	ldr	r3, [r1, #192]
	strh	r3, [r2, #212]	@ movhi
.L778:
	ldr	r3, [r6, #164]
	mov	r4, #1888
	ldr	ip, .L790
	mov	r1, r5
	ldr	r0, [r6, #2380]
	mov	r2, r4
	mul	r3, r4, r3
	ldr	r5, [ip, #52]
	sub	r3, r3, #1888
	add	r0, r0, r3
	blx	r5
	ldr	r2, [r6, #164]
	ldr	r3, [r6, #2380]
	mul	r4, r4, r2
	sub	r4, r4, #1888
	add	r4, r3, r4
	str	r4, [r6, #2404]
	sub	sp, fp, #40
	ldmfd	sp, {r4, r5, r6, r7, r8, r9, r10, fp, sp, pc}
.L789:
	ldr	r9, [r2, #68]
	cmp	r9, r4
	addgt	r3, r2, #170
	ble	.L777
.L776:
	ldr	r10, [r7, #188]
	add	r4, r4, #1
	mov	r1, r9
	str	r3, [fp, #-48]
	mul	r0, r10, r4
	bl	__aeabi_uidiv
	mov	r1, r9
	mov	r8, r0
	sub	r0, r4, #1
	mul	r0, r0, r10
	bl	__aeabi_uidiv
	ldr	r3, [fp, #-48]
	cmp	r4, r9
	rsb	r0, r0, r8
	strh	r0, [r3, #2]!	@ movhi
	bne	.L776
.L777:
	ldr	r9, [r5, #72]
	cmp	r9, #0
	addgt	r3, r5, #210
	movgt	r4, #0
	ble	.L778
.L779:
	ldr	r10, [r7, #192]
	add	r4, r4, #1
	mov	r1, r9
	str	r3, [fp, #-48]
	mul	r0, r10, r4
	bl	__aeabi_uidiv
	mov	r1, r9
	mov	r8, r0
	sub	r0, r4, #1
	mul	r0, r0, r10
	bl	__aeabi_uidiv
	ldr	r3, [fp, #-48]
	cmp	r4, r9
	rsb	r0, r0, r8
	strh	r0, [r3, #2]!	@ movhi
	bne	.L779
	b	.L778
.L791:
	.align	2
.L790:
	.word	vfmw_Osal_Func_Ptr_S
	UNWIND(.fnend)
	.size	HEVC_UpdatePicPPS, .-HEVC_UpdatePicPPS
	.align	2
	.global	HEVC_InitPicInfo
	.type	HEVC_InitPicInfo, %function
HEVC_InitPicInfo:
	UNWIND(.fnstart)
	@ args = 0, pretend = 0, frame = 0
	@ frame_needed = 1, uses_anonymous_args = 0
	UNWIND(.movsp ip)
	mov	ip, sp
	stmfd	sp!, {r4, r5, r6, r7, r8, r9, fp, ip, lr, pc}
	UNWIND(.pad #4)
	UNWIND(.save {r4, r5, r6, r7, r8, r9, fp, ip, lr})
	UNWIND(.setfp fp, ip, #-4)
	sub	fp, ip, #4
	add	r5, r0, #4096
	mov	r3, #1
	strb	r3, [r0, #3521]
	mov	r4, r0
	ldr	r2, [r5, #156]
	mvn	r3, #0
	ldr	ip, [r0, #2400]
	mov	r1, #0
	ldr	r0, [r0, #252]
	str	r2, [r4, #3524]
	ldr	lr, [r5, #140]
	str	r3, [r4, #3552]
	ldr	r3, .L808
	str	lr, [r4, #3532]
	ldr	r2, [ip, #64]
	ldr	r3, [r3, r0, asl #2]
	str	r2, [r4, #3540]
	ldr	r2, [ip, #68]
	str	r1, [r4, #3548]
	str	r2, [r4, #3544]
	ldrsb	r2, [r3, #44]
	cmp	r2, #1
	beq	.L807
.L793:
	ldr	r3, [r4, #2344]
	cmp	r3, #0
	bne	.L796
	ldr	ip, [r4, #2416]
	add	r1, r4, #4160
	movw	r6, #4176
	mvn	r0, #0
	mov	lr, r1
	ldrd	r2, [ip, #64]
	strd	r2, [r1, #8]
	mvn	r1, #0
	ldrd	r2, [ip, #80]
	strd	r2, [r4, r6]
	ldrd	r2, [ip, #96]
	strd	r2, [lr, #24]
	ldr	r3, [ip, #112]
	str	r3, [r4, #3584]
	ldr	r3, [ip, #116]
	str	r3, [r4, #3588]
	ldr	r3, [ip, #120]
	str	r3, [r4, #3592]
	ldr	r3, [ip, #136]
	str	r3, [r4, #3596]
	ldrb	r3, [ip, #56]	@ zero_extendqisi2
	strb	r3, [r5, #120]
	strd	r0, [ip, #64]
	ldr	ip, [r4, #2400]
.L796:
	ldr	r2, [ip, #64]
	mov	r6, #0
	ldrb	r3, [r4, #3648]	@ zero_extendqisi2
	add	r0, r4, #3584
	str	r2, [r4, #3652]
	ldr	r2, [ip, #68]
	str	r6, [r4, #3636]
	str	r2, [r4, #3656]
	ldr	r2, [ip, #60]
	ldr	r1, [ip, #2084]
	subs	r2, r2, #1
	bfi	r3, r1, #5, #3
	movne	r2, #1
	bfi	r3, r2, #2, #3
	strb	r3, [r4, #3648]
	ldr	r1, [ip, #2068]
	and	r1, r1, #7
	bl	SetAspectRatio
	ldr	r3, [r4, #2344]
	cmp	r3, #1
	ldmeqfd	sp, {r4, r5, r6, r7, r8, r9, fp, sp, pc}
	ldr	r3, [r4, #3580]
	ldr	r2, [r5, #140]
	str	r2, [r3, #8]
	ldr	r3, [r4, #3580]
	ldr	r2, [r4, #3648]
	str	r2, [r3, #144]
	ldr	r3, [r4, #3580]
	ldr	r2, [r4, #3636]
	str	r2, [r3, #132]
	ldr	r3, [r4, #3580]
	ldr	r2, [r4, #3688]
	str	r2, [r3, #184]
	ldr	r3, [r4, #3580]
	ldr	r2, [r4, #3684]
	str	r2, [r3, #180]
	ldr	r3, [r4, #3580]
	ldr	r2, [r4, #3652]
	str	r2, [r3, #148]
	ldr	r3, [r4, #3580]
	ldr	r2, [r4, #3656]
	str	r2, [r3, #152]
	ldr	r3, [r4, #3580]
	ldr	r0, [r4, #252]
	ldr	r1, [r3, #28]
	bl	FSP_GetDispPhyFs
	cmp	r0, #0
	beq	.L798
	ldr	r3, [r4, #3636]
	mov	r1, r6
	ldr	r2, [r0, #4]
	subs	r3, r3, r6
	ldr	r0, [r4, #252]
	movne	r3, #1
	bl	FSP_SetStoreType
.L798:
	ldr	r3, [r4, #2400]
	ldr	ip, [r4, #3580]
	ldr	r2, [r3, #72]
	str	r2, [r4, #3804]
	ldr	r6, [r3, #76]
	str	r6, [r4, #3808]
	ldr	r1, [r3, #80]
	str	r1, [r4, #3812]
	ldr	lr, [r3, #84]
	str	lr, [r4, #3816]
	ldr	r0, [r3, #64]
	rsb	r2, r2, r0
	rsb	r2, r6, r2
	str	r2, [r4, #3660]
	ldr	r0, [r3, #68]
	rsb	r1, r1, r0
	rsb	r1, lr, r1
	str	r1, [r4, #3664]
	ldr	r1, [r3, #60]
	str	r1, [r4, #3748]
	ldr	r1, [r3, #88]
	str	r1, [r4, #3752]
	ldr	r3, [r3, #96]
	str	r3, [r4, #3756]
	ldr	r3, [ip, #164]
	str	r3, [r4, #3668]
	ldr	r3, [ip, #168]
	str	r3, [r4, #3672]
	str	r2, [ip, #156]
	mov	ip, #0
	ldr	r2, [r4, #3664]
	ldr	r3, [r4, #3580]
	str	r2, [r3, #160]
	ldr	r3, [r4, #3580]
	ldr	r2, [r4, #3668]
	str	r2, [r3, #164]
	ldr	r3, [r4, #3580]
	ldr	r2, [r4, #3672]
	str	r2, [r3, #168]
	ldr	r3, [r4, #3580]
	ldr	r2, [r4, #3752]
	str	r2, [r3, #248]
	ldr	r3, [r4, #3580]
	ldr	r2, [r4, #3756]
	str	r2, [r3, #252]
	add	r2, r4, #24576
	ldr	r3, [r5, #148]
	cmp	r3, #2
	ldreqb	r3, [r2, #2572]	@ zero_extendqisi2
	ldreqb	r1, [r2, #2568]	@ zero_extendqisi2
	ubfxeq	r0, r3, #1, #4
	andeq	r3, r3, #1
	bfieq	r1, r0, #1, #4
	ldrneb	r3, [r2, #2568]	@ zero_extendqisi2
	bfieq	r1, r3, #0, #1
	streqb	r1, [r2, #2568]
	ldr	r1, [r4, #3580]
	andne	r3, r3, #1
	ldrb	r0, [r1, #716]	@ zero_extendqisi2
	bfi	r0, r3, #0, #1
	strb	r0, [r1, #716]
	ldr	r1, [r4, #3580]
	ldrb	r3, [r2, #2568]	@ zero_extendqisi2
	ldrb	r0, [r1, #716]	@ zero_extendqisi2
	ubfx	r3, r3, #1, #4
	bfi	r0, r3, #1, #4
	strb	r0, [r1, #716]
	ldrb	r3, [r2, #2572]	@ zero_extendqisi2
	and	r3, r3, #254
	bfc	r3, #1, #4
	strb	r3, [r2, #2572]
	str	ip, [r4, #3536]
	ldmfd	sp, {r4, r5, r6, r7, r8, r9, fp, sp, pc}
.L807:
	ldr	r2, [r3, #160]
	cmp	r2, #1
	bne	.L793
	ldr	r3, [r3, #164]
	cmp	r3, #2
	bne	.L793
	add	r3, r4, #8192
	ldrb	r3, [r3, #2936]	@ zero_extendqisi2
	cmp	r3, #1
	bne	.L793
	add	r8, r4, #11136
	mov	r3, r8
	add	r8, r8, #32
	add	r3, r3, #48
	ldrd	r0, [r8, #-8]
	ldrd	r2, [r3, #-8]
	cmp	r1, r3
	cmpeq	r0, r2
	bls	.L794
	subs	r6, r0, r2
	sbc	r7, r1, r3
	cmp	r7, #0
	cmpeq	r6, #16
	bls	.L794
.L795:
	ldr	r1, [r4, #260]
	rsb	lr, r1, lr
	adds	r2, r2, lr
	adc	r3, r3, lr, asr #31
	strd	r2, [r8, #-8]
	b	.L793
.L794:
	cmp	r1, r3
	cmpeq	r0, r2
	bcs	.L793
	subs	r0, r2, r0
	sbc	r1, r3, r1
	cmp	r1, #0
	cmpeq	r0, #16
	bls	.L793
	b	.L795
.L809:
	.align	2
.L808:
	.word	s_pstVfmwChan
	UNWIND(.fnend)
	.size	HEVC_InitPicInfo, .-HEVC_InitPicInfo
	.align	2
	.global	HEVC_RepairList
	.type	HEVC_RepairList, %function
HEVC_RepairList:
	UNWIND(.fnstart)
	@ args = 0, pretend = 0, frame = 8
	@ frame_needed = 1, uses_anonymous_args = 0
	UNWIND(.movsp ip)
	mov	ip, sp
	stmfd	sp!, {r4, r5, r6, r7, r8, r9, r10, fp, ip, lr, pc}
	UNWIND(.pad #4)
	UNWIND(.save {r4, r5, r6, r7, r8, r9, r10, fp, ip, lr})
	UNWIND(.setfp fp, ip, #-4)
	sub	fp, ip, #4
	UNWIND(.pad #20)
	sub	sp, sp, #20
	add	r3, r0, #4096
	mov	r10, r0
	ldr	r3, [r3, #148]
	cmp	r3, #1
	beq	.L827
	cmp	r3, #2
	beq	.L828
	cmp	r3, #0
	moveq	r3, #2
	streq	r3, [fp, #-48]
	beq	.L812
	ldr	r2, .L837
	mov	r0, #1
	ldr	r1, .L837+4
	bl	dprint_vfmw
	mvn	r0, #0
	sub	sp, fp, #40
	ldmfd	sp, {r4, r5, r6, r7, r8, r9, r10, fp, sp, pc}
.L827:
	str	r3, [fp, #-48]
.L812:
	add	r7, r10, #2416
	add	r9, r10, #4288
	add	r7, r7, #12
	mov	r8, #0
.L825:
	ldr	r2, [r9, #4]!
	cmp	r2, #0
	beq	.L815
	ldr	r1, [r7]
	cmp	r1, #0
	bne	.L829
	mov	r0, r7
	mov	r3, r1
	b	.L817
.L819:
	ldr	r5, [r0, #4]!
	cmp	r5, #0
	bne	.L835
.L817:
	add	r3, r3, #1
	cmp	r3, r2
	bne	.L819
	mov	r3, #255
	str	r3, [fp, #-52]
.L818:
	ldr	r3, [r10, #2416]
	ldr	r3, [r3, #24]
	cmp	r3, #2
	bne	.L820
	ldr	r5, [r10, #3580]
	add	r5, r5, #56
.L816:
	mov	r3, r1
	mov	r6, r7
	mov	r4, #0
	b	.L826
.L822:
	ldr	r3, [r6, #4]!
.L826:
	cmp	r3, #0
	beq	.L836
.L821:
	add	r4, r4, #1
	cmp	r2, r4
	bhi	.L822
.L823:
	ldr	r3, [fp, #-48]
	add	r8, r8, #1
	add	r7, r7, #68
	cmp	r8, r3
	bcc	.L825
.L828:
	mov	r0, #0
	sub	sp, fp, #40
	ldmfd	sp, {r4, r5, r6, r7, r8, r9, r10, fp, sp, pc}
.L815:
	ldr	r3, [r10, #2416]
	ldr	r3, [r3, #24]
	cmp	r3, #2
	moveq	r3, #1
	streq	r3, [r9]
	ldreq	r3, [r10, #3580]
	addeq	r3, r3, #56
	streq	r3, [r7]
	b	.L823
.L836:
	ldrsb	r2, [fp, #-52]
	mov	r3, r8
	str	r4, [sp]
	mov	r0, #1
	ldr	r1, .L837+8
	str	r2, [sp, #4]
	ldr	r2, .L837
	bl	dprint_vfmw
	str	r5, [r6]
	ldr	r2, [r9]
	b	.L821
.L835:
	uxtb	r3, r3
	str	r3, [fp, #-52]
	cmp	r3, #255
	bne	.L816
	b	.L818
.L829:
	mov	r3, #0
	mov	r5, r1
	str	r3, [fp, #-52]
	b	.L816
.L820:
	mov	r3, r8
	ldr	r2, .L837
	ldr	r1, .L837+12
	mov	r0, #1
	bl	dprint_vfmw
	mvn	r0, #0
	sub	sp, fp, #40
	ldmfd	sp, {r4, r5, r6, r7, r8, r9, r10, fp, sp, pc}
.L838:
	.align	2
.L837:
	.word	.LANCHOR0+284
	.word	.LC79
	.word	.LC81
	.word	.LC80
	UNWIND(.fnend)
	.size	HEVC_RepairList, .-HEVC_RepairList
	.align	2
	.global	HEVC_InitListX
	.type	HEVC_InitListX, %function
HEVC_InitListX:
	UNWIND(.fnstart)
	@ args = 0, pretend = 0, frame = 144
	@ frame_needed = 1, uses_anonymous_args = 0
	UNWIND(.movsp ip)
	mov	ip, sp
	stmfd	sp!, {r4, r5, r6, r7, r8, r9, r10, fp, ip, lr, pc}
	UNWIND(.pad #4)
	UNWIND(.save {r4, r5, r6, r7, r8, r9, r10, fp, ip, lr})
	UNWIND(.setfp fp, ip, #-4)
	sub	fp, ip, #4
	UNWIND(.pad #148)
	sub	sp, sp, #148
	subs	r7, r0, #0
	beq	.L875
	ldr	r3, .L907
	mov	r2, #136
	mov	r1, #0
	sub	r0, fp, #180
	ldr	r3, [r3, #48]
	blx	r3
	ldr	lr, [r7, #2612]
	cmp	lr, #0
	beq	.L876
	add	r1, r7, #2672
	mov	r0, #0
	add	r1, r1, #12
	mov	r3, r0
	b	.L843
.L842:
	cmp	r3, lr
	beq	.L841
.L843:
	ldr	r2, [r1, #4]!
	add	r3, r3, #1
	ldrb	ip, [r2, #1]	@ zero_extendqisi2
	cmp	ip, #1
	bne	.L842
	ldr	ip, [r2, #60]
	cmp	ip, #0
	bne	.L842
	ldr	ip, [r2, #64]
	cmp	ip, #1
	subeq	ip, fp, #44
	addeq	r2, r2, #56
	addeq	ip, ip, r0, lsl #2
	addeq	r0, r0, #1
	streq	r2, [ip, #-136]
	cmp	r3, lr
	bne	.L843
.L841:
	ldr	r4, [r7, #2616]
	cmp	r4, #0
	beq	.L877
	add	r1, r7, #2752
	mov	ip, r0
	mov	r3, #0
	b	.L846
.L845:
	cmp	r3, r4
	beq	.L903
.L846:
	ldr	r2, [r1, #4]!
	add	r3, r3, #1
	ldrb	lr, [r2, #1]	@ zero_extendqisi2
	cmp	lr, #1
	bne	.L845
	ldr	lr, [r2, #60]
	cmp	lr, #0
	bne	.L845
	ldr	lr, [r2, #64]
	cmp	lr, #1
	subeq	lr, fp, #44
	addeq	r2, r2, #56
	addeq	lr, lr, ip, lsl #2
	addeq	ip, ip, #1
	streq	r2, [lr, #-136]
	cmp	r3, r4
	bne	.L846
.L903:
	rsb	r4, r0, ip
.L844:
	ldr	r5, [r7, #2608]
	cmp	r5, #0
	beq	.L878
	add	lr, r7, #2816
	mov	r10, ip
	add	lr, lr, #4
	mov	r2, #0
	b	.L849
.L848:
	cmp	r2, r5
	beq	.L904
.L849:
	ldr	r3, [lr, #4]!
	add	r2, r2, #1
	ldrb	r1, [r3, #1]	@ zero_extendqisi2
	cmp	r1, #1
	bne	.L848
	ldr	r1, [r3, #60]
	cmp	r1, #1
	bne	.L848
	ldr	r1, [r3, #64]
	sub	r6, fp, #44
	add	r6, r6, r10, lsl #2
	add	r3, r3, #56
	cmp	r1, #0
	addeq	r10, r10, #1
	streq	r3, [r6, #-136]
	cmp	r2, r5
	bne	.L849
.L904:
	rsb	r5, r0, r10
	rsb	r5, r4, r5
.L847:
	cmp	r10, #0
	beq	.L905
	add	r3, r7, #4096
	str	r3, [fp, #-184]
	ldr	r3, [r3, #148]
	cmp	r3, #0
	str	r3, [fp, #-188]
	beq	.L906
	ldr	r3, [fp, #-184]
	ldr	r4, [r3, #204]
	ldr	r5, [r3, #208]
	cmp	r4, #0
	str	r4, [r3, #196]
	str	r5, [r3, #200]
	beq	.L868
.L874:
	ldr	r3, [fp, #-184]
	add	r8, r7, #2416
	add	r8, r8, #8
	mov	r6, #0
	ldrb	r9, [r3, #1224]	@ zero_extendqisi2
.L861:
	cmp	r9, #0
	mov	r1, r10
	mov	r0, r6
	ldrne	r1, [r8, #2900]
	bne	.L860
	bl	__aeabi_uidivmod
.L860:
	sub	r3, fp, #44
	add	r6, r6, #1
	add	r1, r3, r1, lsl #2
	cmp	r4, r6
	ldr	r3, [r1, #-136]
	str	r3, [r8, #4]!
	bhi	.L861
	ldr	r3, [fp, #-188]
	cmp	r3, #0
	bne	.L902
.L862:
	cmp	r5, #0
	beq	.L864
	ldr	r3, [fp, #-184]
	add	r6, r7, #2480
	add	r6, r6, #12
	mov	r4, #0
	ldrb	r8, [r3, #1225]	@ zero_extendqisi2
.L867:
	cmp	r8, #0
	mov	r1, r10
	mov	r0, r4
	ldrne	r1, [r6, #2960]
	bne	.L866
	bl	__aeabi_uidivmod
.L866:
	sub	r3, fp, #44
	add	r4, r4, #1
	add	r1, r3, r1, lsl #2
	cmp	r4, r5
	ldr	r3, [r1, #-68]
	str	r3, [r6, #4]!
	bne	.L867
.L902:
	ldr	r3, [fp, #-184]
	ldr	r4, [r3, #196]
	ldr	r5, [r3, #200]
.L863:
	cmp	r4, #16
	bhi	.L872
.L868:
	add	r4, r4, #604
	add	r2, r7, #2480
	add	r4, r4, #2
	add	r2, r2, #12
	add	r4, r7, r4, lsl #2
.L871:
	ldr	r3, [r7, #2428]
	str	r3, [r4, #4]!
	cmp	r4, r2
	bne	.L871
.L872:
	cmp	r5, #16
	bhi	.L870
	add	r5, r5, #620
	add	r2, r7, #2560
	add	r5, r5, #3
	add	r5, r7, r5, lsl #2
.L873:
	ldr	r3, [r7, #2496]
	str	r3, [r5, #4]!
	cmp	r5, r2
	bne	.L873
.L870:
	mov	r0, #0
.L901:
	sub	sp, fp, #40
	ldmfd	sp, {r4, r5, r6, r7, r8, r9, r10, fp, sp, pc}
.L906:
	cmp	r4, #0
	beq	.L853
	sub	r3, fp, #180
	ldr	r2, [fp, #-188]
	add	lr, r3, r0, lsl #2
	sub	r1, fp, #116
.L854:
	add	r2, r2, #1
	ldr	r3, [lr], #4
	cmp	r2, r4
	str	r3, [r1, #4]!
	bne	.L854
.L853:
	cmp	r0, #0
	beq	.L855
	add	r1, r4, #16
	sub	lr, fp, #180
	mov	r2, #0
	add	r1, lr, r1, lsl #2
.L856:
	add	r2, r2, #1
	ldr	r3, [lr], #4
	cmp	r2, r0
	str	r3, [r1, #4]!
	bne	.L856
	add	r4, r4, r2
.L855:
	cmp	r5, #0
	beq	.L857
	add	r4, r4, #16
	sub	r3, fp, #180
	add	ip, r3, ip, lsl #2
	mov	r2, #0
	add	r4, r3, r4, lsl #2
.L858:
	add	r2, r2, #1
	ldr	r3, [ip], #4
	cmp	r2, r5
	str	r3, [r4, #4]!
	bne	.L858
.L857:
	ldr	r3, [fp, #-184]
	ldr	r4, [r3, #204]
	ldr	r5, [r3, #208]
	cmp	r4, #0
	str	r4, [r3, #196]
	str	r5, [r3, #200]
	bne	.L874
	b	.L862
.L905:
	ldr	r3, .L907
	add	r4, r7, #4096
	add	r0, r7, #2416
	mov	r2, #136
	add	r0, r0, #12
	str	r10, [r4, #196]
	ldr	r5, [r3, #48]
	mov	r1, r10
	str	r10, [r4, #200]
	blx	r5
	ldr	r2, [r7, #2416]
	ldr	r2, [r2, #24]
	cmp	r2, #2
	bne	.L870
	mov	r2, #1
	str	r2, [r4, #196]
	ldr	r2, [r7, #3580]
	mov	r0, r10
	add	r3, r2, #56
	str	r3, [r7, #2428]
	b	.L901
.L876:
	mov	r0, lr
	b	.L841
.L877:
	mov	ip, r0
	b	.L844
.L878:
	mov	r10, ip
	b	.L847
.L864:
	ldr	r3, .L907
	add	r1, r7, #2416
	add	r1, r1, #12
	mov	r2, #68
	add	r0, r7, #2496
	ldr	r3, [r3, #52]
	blx	r3
	ldr	r3, [fp, #-184]
	ldr	r4, [r3, #196]
	str	r4, [r3, #200]
	mov	r5, r4
	b	.L863
.L875:
	mvn	r0, #0
	b	.L901
.L908:
	.align	2
.L907:
	.word	vfmw_Osal_Func_Ptr_S
	UNWIND(.fnend)
	.size	HEVC_InitListX, .-HEVC_InitListX
	.align	2
	.global	HEVC_DecList
	.type	HEVC_DecList, %function
HEVC_DecList:
	UNWIND(.fnstart)
	@ args = 0, pretend = 0, frame = 0
	@ frame_needed = 1, uses_anonymous_args = 0
	UNWIND(.movsp ip)
	mov	ip, sp
	stmfd	sp!, {r4, r5, fp, ip, lr, pc}
	UNWIND(.pad #4)
	UNWIND(.save {r4, r5, fp, ip, lr})
	UNWIND(.setfp fp, ip, #-4)
	sub	fp, ip, #4
	add	r3, r0, #4096
	mov	r4, r0
	ldr	r2, [r3, #148]
	cmp	r2, #2
	beq	.L914
	bl	HEVC_InitListX
	cmp	r0, #0
	bne	.L915
	mov	r0, r4
	bl	HEVC_RepairList
	cmp	r0, #0
	ldmeqfd	sp, {r4, r5, fp, sp, pc}
	ldr	r1, .L916
	mov	r0, #1
	bl	dprint_vfmw
	mvn	r0, #0
	ldmfd	sp, {r4, r5, fp, sp, pc}
.L914:
	mov	r0, #0
	str	r0, [r3, #196]
	str	r0, [r3, #200]
	ldmfd	sp, {r4, r5, fp, sp, pc}
.L915:
	ldr	r1, .L916+4
	mov	r0, #1
	bl	dprint_vfmw
	mvn	r0, #0
	ldmfd	sp, {r4, r5, fp, sp, pc}
.L917:
	.align	2
.L916:
	.word	.LC83
	.word	.LC82
	UNWIND(.fnend)
	.size	HEVC_DecList, .-HEVC_DecList
	.align	2
	.global	HEVC_ArrangeMem
	.type	HEVC_ArrangeMem, %function
HEVC_ArrangeMem:
	UNWIND(.fnstart)
	@ args = 0, pretend = 0, frame = 24
	@ frame_needed = 1, uses_anonymous_args = 0
	UNWIND(.movsp ip)
	mov	ip, sp
	stmfd	sp!, {r4, r5, r6, fp, ip, lr, pc}
	UNWIND(.pad #4)
	UNWIND(.save {r4, r5, r6, fp, ip, lr})
	UNWIND(.setfp fp, ip, #-4)
	sub	fp, ip, #4
	UNWIND(.pad #36)
	sub	sp, sp, #36
	ldr	r2, [r0, #2400]
	movw	r1, #8160
	mov	r4, r0
	ldr	r6, [r2, #188]
	ldr	r5, [r2, #192]
	ldr	r2, [r2, #128]
	mov	r6, r6, asl r2
	mov	r5, r5, asl r2
	sub	r2, r5, #32
	sub	r3, r6, #32
	cmp	r3, r1
	cmpls	r2, r1
	movhi	r1, #1
	movls	r1, #0
	bhi	.L925
	ldr	r3, .L927
	mov	r2, #20
	sub	r0, fp, #48
	ldr	r3, [r3, #48]
	blx	r3
	ldr	r3, [r4, #2416]
	str	r6, [fp, #-44]
	str	r5, [fp, #-40]
	ldr	r3, [r3, #28]
	str	r6, [fp, #-36]
	cmp	r3, #24
	str	r5, [fp, #-32]
	beq	.L921
	ldrb	r3, [r4, #2596]	@ zero_extendqisi2
	strb	r3, [fp, #-47]
.L923:
	sub	r1, fp, #48
	ldr	r0, [r4, #252]
	strb	r3, [fp, #-45]
	bl	FSP_ConfigInstance
	cmp	r0, #0
	bne	.L926
	ldr	r1, [r4, #2416]
	sub	r3, fp, #52
	ldr	r0, [r4, #252]
	ldr	r2, [r1, #20]
	ldr	r1, [r1, #16]
	bl	FSP_ConfigFrameBuf
.L924:
	sub	sp, fp, #24
	ldmfd	sp, {r4, r5, r6, fp, sp, pc}
.L921:
	mov	r3, #1
	strb	r3, [fp, #-47]
	b	.L923
.L925:
	str	r5, [sp]
	mov	r3, r6
	ldr	r2, .L927+4
	mov	r0, #0
	ldr	r1, .L927+8
	bl	dprint_vfmw
	mvn	r0, #19
	sub	sp, fp, #24
	ldmfd	sp, {r4, r5, r6, fp, sp, pc}
.L926:
	ldr	r2, .L927+4
	mov	r0, #1
	ldr	r1, .L927+12
	bl	dprint_vfmw
	mvn	r0, #0
	b	.L924
.L928:
	.align	2
.L927:
	.word	vfmw_Osal_Func_Ptr_S
	.word	.LANCHOR0+300
	.word	.LC84
	.word	.LC85
	UNWIND(.fnend)
	.size	HEVC_ArrangeMem, .-HEVC_ArrangeMem
	.align	2
	.global	HEVC_RemoveApcStore
	.type	HEVC_RemoveApcStore, %function
HEVC_RemoveApcStore:
	UNWIND(.fnstart)
	@ args = 0, pretend = 0, frame = 0
	@ frame_needed = 1, uses_anonymous_args = 0
	UNWIND(.movsp ip)
	mov	ip, sp
	stmfd	sp!, {fp, ip, lr, pc}
	UNWIND(.pad #4)
	UNWIND(.save {fp, ip, lr})
	UNWIND(.setfp fp, ip, #-4)
	sub	fp, ip, #4
	UNWIND(.pad #8)
	sub	sp, sp, #8
	add	r3, r0, r1, lsl #2
	ldr	ip, [r3, #2620]
	ldr	r2, [ip, #32]
	cmp	r2, #0
	bne	.L932
	ldr	r3, [ip, #24]
	cmp	r3, #15
	bhi	.L929
	add	r3, r0, r3, lsl #2
	add	r1, r0, #12288
	add	r3, r3, #12288
	mov	lr, #16
	str	r2, [r3, #264]
	str	r2, [r3, #328]
	str	r2, [r3, #392]
	ldr	r3, [ip, #20]
	add	r3, r3, #536
	str	r2, [r0, r3, asl #2]
	str	lr, [ip, #24]
	ldr	r3, [r1, #260]
	sub	r3, r3, #1
	str	r3, [r1, #260]
.L929:
	sub	sp, fp, #12
	ldmfd	sp, {fp, sp, pc}
.L932:
	str	r2, [sp]
	mov	r3, r1
	ldr	r2, .L933
	mov	r0, #1
	ldr	r1, .L933+4
	bl	dprint_vfmw
	sub	sp, fp, #12
	ldmfd	sp, {fp, sp, pc}
.L934:
	.align	2
.L933:
	.word	.LANCHOR0+316
	.word	.LC86
	UNWIND(.fnend)
	.size	HEVC_RemoveApcStore, .-HEVC_RemoveApcStore
	.align	2
	.global	HEVC_RemoveUnusedApcStore
	.type	HEVC_RemoveUnusedApcStore, %function
HEVC_RemoveUnusedApcStore:
	UNWIND(.fnstart)
	@ args = 0, pretend = 0, frame = 0
	@ frame_needed = 1, uses_anonymous_args = 0
	UNWIND(.movsp ip)
	mov	ip, sp
	stmfd	sp!, {r4, r5, r6, r7, fp, ip, lr, pc}
	UNWIND(.pad #4)
	UNWIND(.save {r4, r5, r6, r7, fp, ip, lr})
	UNWIND(.setfp fp, ip, #-4)
	sub	fp, ip, #4
	ldr	r2, [r0, #2600]
	mov	r6, r0
	cmp	r2, #0
	ldmeqfd	sp, {r4, r5, r6, r7, fp, sp, pc}
	add	r5, r0, #2608
	mov	r4, #0
	add	r5, r5, #8
	b	.L938
.L937:
	add	r4, r4, #1
	cmp	r4, r2
	bcs	.L941
.L938:
	ldr	r3, [r5, #4]!
	ldrb	r3, [r3, #1]	@ zero_extendqisi2
	cmp	r3, #0
	bne	.L937
	mov	r1, r4
	mov	r0, r6
	bl	HEVC_RemoveApcStore
	ldr	r2, [r6, #2600]
	add	r4, r4, #1
	cmp	r4, r2
	bcc	.L938
.L941:
	ldmfd	sp, {r4, r5, r6, r7, fp, sp, pc}
	UNWIND(.fnend)
	.size	HEVC_RemoveUnusedApcStore, .-HEVC_RemoveUnusedApcStore
	.align	2
	.global	HEVC_ApplyReferencePictureSet
	.type	HEVC_ApplyReferencePictureSet, %function
HEVC_ApplyReferencePictureSet:
	UNWIND(.fnstart)
	@ args = 0, pretend = 0, frame = 8
	@ frame_needed = 1, uses_anonymous_args = 0
	UNWIND(.movsp ip)
	mov	ip, sp
	stmfd	sp!, {r4, r5, r6, r7, r8, r9, r10, fp, ip, lr, pc}
	UNWIND(.pad #4)
	UNWIND(.save {r4, r5, r6, r7, r8, r9, r10, fp, ip, lr})
	UNWIND(.setfp fp, ip, #-4)
	sub	fp, ip, #4
	UNWIND(.pad #12)
	sub	sp, sp, #12
	add	r4, r0, #4096
	ldr	r2, [r0, #2380]
	mov	lr, #1888
	ldr	r1, [r4, #164]
	movw	ip, #12660
	ldr	r3, [r0, #2376]
	mov	r9, r0
	mov	r0, #1
	mla	r2, lr, r1, r2
	ldr	r1, [r9, #2600]
	cmp	r1, #0
	ldr	r2, [r2, #32]
	mla	r3, ip, r2, r3
	ldr	r3, [r3, #116]
	mov	r3, r0, asl r3
	str	r3, [fp, #-48]
	beq	.L942
	add	r7, r9, #2608
	add	r3, r9, #5184
	add	r3, r3, #4
	add	r7, r7, #8
	str	r3, [fp, #-52]
	mov	r8, #0
	b	.L959
.L945:
	add	r8, r8, #1
	cmp	r8, r1
	bcs	.L942
.L959:
	ldr	r0, [r7, #4]!
	ldr	r3, [r4, #160]
	ldr	r2, [r0, #32]
	cmp	r2, r3
	bne	.L945
	ldr	r1, [r4, #1060]
	ldr	r3, [r4, #1064]
	ldr	r2, [r4, #1068]
	add	r3, r3, r1
	cmp	r3, r2
	mov	r6, r3
	ldrcs	ip, [r0, #8]
	movcs	r1, #0
	bcs	.L947
	add	r5, r3, #1312
	ldr	r3, [r0, #8]
	add	r5, r5, #2
	mov	r1, #0
	mov	r10, #1
	mov	r2, r3
	mov	r3, r9
	add	r5, r9, r5, lsl #2
	mov	r9, r8
	mov	r8, r3
.L953:
	ldr	ip, [r5, #-944]
	cmp	ip, #0
	ldr	ip, [r0, #60]
	beq	.L948
	cmp	ip, #0
	beq	.L949
	ldr	ip, [r5]
	cmp	ip, r2
	beq	.L981
.L949:
	cmp	r1, #0
	bne	.L964
	ldr	r1, [r5]
	mov	lr, r2
.L961:
	ldrb	ip, [r0, #1]	@ zero_extendqisi2
	rsb	r1, r1, lr
	clz	r1, r1
	cmp	ip, #0
	mov	r1, r1, lsr #5
	moveq	r1, #0
	cmp	r1, #0
	bne	.L982
.L964:
	mov	ip, r2
.L952:
	ldr	lr, [r4, #1068]
	add	r6, r6, #1
	add	r5, r5, #4
	mov	r2, ip
	cmp	r6, lr
	bcc	.L953
	mov	r3, r8
	ldr	r2, [r4, #1060]
	mov	r8, r9
	mov	r9, r3
	ldr	r3, [r4, #1064]
	add	r3, r3, r2
.L947:
	cmp	r3, #0
	ldr	lr, [r4, #140]
	ldrne	r6, [fp, #-52]
	movne	r5, #0
	movne	r10, #1
	beq	.L955
.L957:
	ldr	r3, [r0, #60]
	add	r5, r5, #1
	cmp	r3, #0
	bne	.L956
	ldr	r3, [r6]
	add	r3, lr, r3
	cmp	r3, ip
	beq	.L983
.L956:
	ldr	r3, [r4, #1064]
	add	r6, r6, #4
	ldr	r2, [r4, #1060]
	add	r3, r3, r2
	cmp	r5, r3
	bcc	.L957
.L955:
	eor	r1, r1, #1
	cmp	ip, lr
	moveq	ip, #0
	andne	ip, r1, #1
	cmp	ip, #0
	beq	.L980
	mov	r3, #0
	strb	r3, [r0, #1]
	ldr	r3, [r7]
	mov	r2, #0
	str	r2, [r3, #60]
	ldr	r3, [r7]
	ldr	r2, [r3, #52]
	cmp	r2, #1
	beq	.L980
	ldr	r1, [r3, #28]
	mov	r2, #0
	ldr	r0, [r9, #252]
	bl	FSP_SetRef
.L980:
	ldr	r1, [r9, #2600]
	add	r8, r8, #1
	cmp	r8, r1
	bcc	.L959
.L942:
	sub	sp, fp, #40
	ldmfd	sp, {r4, r5, r6, r7, r8, r9, r10, fp, sp, pc}
.L948:
	cmp	ip, #0
	beq	.L951
	ldr	lr, [r5]
	ldr	r3, [fp, #-48]
	eor	lr, lr, r2
	sub	ip, r3, #1
	tst	lr, ip
	beq	.L981
.L951:
	cmp	r1, #0
	bne	.L964
	ldr	r3, [fp, #-48]
	ldr	ip, [r5]
	sub	r1, r3, #1
	and	lr, r2, r1
	and	r1, r1, ip
	b	.L961
.L982:
	strb	r10, [r0, #1]
	mov	r2, #1
	ldr	r1, [r7]
	str	r10, [r1, #60]
	ldr	r1, [r7]
	str	r10, [r1, #48]
	ldr	r1, [r7]
	ldr	r0, [r8, #252]
	ldr	r1, [r1, #28]
	bl	FSP_SetRef
	ldr	r0, [r7]
	mov	r1, #1
	ldr	ip, [r0, #8]
	b	.L952
.L981:
	strb	r10, [r0, #1]
	mov	r2, #1
	ldr	r1, [r7]
	str	r10, [r1, #48]
	ldr	r1, [r7]
	ldr	r0, [r8, #252]
	ldr	r1, [r1, #28]
	bl	FSP_SetRef
	ldr	r0, [r7]
	mov	r1, #1
	ldr	ip, [r0, #8]
	b	.L952
.L983:
	strb	r10, [r0, #1]
	mov	r2, #1
	ldr	r3, [r7]
	str	r10, [r3, #48]
	ldr	r3, [r7]
	ldr	r0, [r9, #252]
	ldr	r1, [r3, #28]
	bl	FSP_SetRef
	ldr	r0, [r7]
	ldr	lr, [r4, #140]
	mov	r1, #1
	ldr	ip, [r0, #8]
	b	.L956
	UNWIND(.fnend)
	.size	HEVC_ApplyReferencePictureSet, .-HEVC_ApplyReferencePictureSet
	.align	2
	.global	HEVC_CheckThatAllRefPicsAreAvailable
	.type	HEVC_CheckThatAllRefPicsAreAvailable, %function
HEVC_CheckThatAllRefPicsAreAvailable:
	UNWIND(.fnstart)
	@ args = 0, pretend = 0, frame = 0
	@ frame_needed = 1, uses_anonymous_args = 0
	UNWIND(.movsp ip)
	mov	ip, sp
	stmfd	sp!, {fp, ip, lr, pc}
	UNWIND(.pad #4)
	UNWIND(.save {fp, ip, lr})
	UNWIND(.setfp fp, ip, #-4)
	sub	fp, ip, #4
	add	r3, r0, #4096
	ldr	r3, [r3, #156]
	sub	r3, r3, #19
	cmp	r3, #2
	bls	.L985
	sub	sp, fp, #12
	ldmia	sp, {fp, sp, lr}
	b	HEVC_CheckThatAllRefPicsAreAvailable.part.9
.L985:
	mov	r0, #1
	ldmfd	sp, {fp, sp, pc}
	UNWIND(.fnend)
	.size	HEVC_CheckThatAllRefPicsAreAvailable, .-HEVC_CheckThatAllRefPicsAreAvailable
	.align	2
	.global	HEVC_SetFrmRepeatCount
	.type	HEVC_SetFrmRepeatCount, %function
HEVC_SetFrmRepeatCount:
	UNWIND(.fnstart)
	@ args = 0, pretend = 0, frame = 0
	@ frame_needed = 1, uses_anonymous_args = 0
	UNWIND(.movsp ip)
	mov	ip, sp
	stmfd	sp!, {fp, ip, lr, pc}
	UNWIND(.pad #4)
	UNWIND(.save {fp, ip, lr})
	UNWIND(.setfp fp, ip, #-4)
	sub	fp, ip, #4
	ldr	r3, [r0, #2416]
	ldr	r3, [r3, #620]
	add	r3, r3, #2032
	add	r3, r3, #15
	cmp	r3, #4096
	movcc	r3, #0
	strcc	r3, [r1, #16]
	ldmccfd	sp, {fp, sp, pc}
	sub	sp, fp, #12
	ldmia	sp, {fp, sp, lr}
	b	HEVC_SetFrmRepeatCount.part.10
	UNWIND(.fnend)
	.size	HEVC_SetFrmRepeatCount, .-HEVC_SetFrmRepeatCount
	.align	2
	.global	HEVC_GetFreeFrameStoreNum
	.type	HEVC_GetFreeFrameStoreNum, %function
HEVC_GetFreeFrameStoreNum:
	UNWIND(.fnstart)
	@ args = 0, pretend = 0, frame = 0
	@ frame_needed = 1, uses_anonymous_args = 0
	UNWIND(.movsp ip)
	mov	ip, sp
	stmfd	sp!, {r4, r5, fp, ip, lr, pc}
	UNWIND(.pad #4)
	UNWIND(.save {r4, r5, fp, ip, lr})
	UNWIND(.setfp fp, ip, #-4)
	sub	fp, ip, #4
	add	r1, r0, #12736
	add	r4, r0, #27136
	add	r1, r1, #8
	add	r4, r4, #8
	mov	r5, #0
.L993:
	ldr	r3, [r1, #48]
	cmp	r3, #0
	bne	.L989
	cmp	r1, #0
	beq	.L990
	ldr	lr, [r0, #2600]
	cmp	lr, #0
	beq	.L990
	ldr	r2, [r0, #2620]
	cmp	r2, r1
	beq	.L989
	add	r2, r0, #2608
	add	r2, r2, #12
	b	.L991
.L992:
	ldr	ip, [r2, #4]!
	cmp	ip, r1
	beq	.L989
.L991:
	add	r3, r3, #1
	cmp	r3, lr
	bne	.L992
.L990:
	add	r5, r5, #1
.L989:
	add	r1, r1, #720
	cmp	r1, r4
	bne	.L993
	mov	r0, r5
	ldmfd	sp, {r4, r5, fp, sp, pc}
	UNWIND(.fnend)
	.size	HEVC_GetFreeFrameStoreNum, .-HEVC_GetFreeFrameStoreNum
	.align	2
	.global	HEVC_UpdateReflist
	.type	HEVC_UpdateReflist, %function
HEVC_UpdateReflist:
	UNWIND(.fnstart)
	@ args = 0, pretend = 0, frame = 8
	@ frame_needed = 1, uses_anonymous_args = 0
	UNWIND(.movsp ip)
	mov	ip, sp
	stmfd	sp!, {r4, r5, r6, r7, r8, r9, r10, fp, ip, lr, pc}
	UNWIND(.pad #4)
	UNWIND(.save {r4, r5, r6, r7, r8, r9, r10, fp, ip, lr})
	UNWIND(.setfp fp, ip, #-4)
	sub	fp, ip, #4
	UNWIND(.pad #12)
	sub	sp, sp, #12
	add	r5, r0, #4096
	mov	r7, r0
	ldr	r1, [r5, #1060]
	cmp	r1, #0
	beq	.L1023
	add	r10, r0, #5120
	add	r9, r0, #5184
	mov	r8, #0
	add	r10, r10, #47
	add	r9, r9, #4
	mov	r6, r8
.L1009:
	ldrb	r3, [r10, #1]!	@ zero_extendqisi2
	cmp	r3, #0
	beq	.L1005
	ldr	lr, [r7, #2600]
	ldr	ip, [r5, #140]
	ldr	r3, [r9]
	cmp	lr, #0
	add	ip, ip, r3
	beq	.L1005
	add	r1, r7, #2608
	mov	r3, #0
	add	r1, r1, #8
	b	.L1008
.L1006:
	add	r3, r3, #1
	cmp	r3, lr
	beq	.L1005
.L1008:
	ldr	r2, [r1, #4]!
	ldr	r0, [r2, #8]
	cmp	r0, ip
	bne	.L1006
	ldr	r4, [r5, #160]
	ldr	r0, [r2, #32]
	cmp	r4, r0
	bne	.L1006
	add	r4, r7, r3, lsl #2
	mov	r3, #1
	strb	r3, [r2, #1]
	ldr	r3, [r4, #2620]
	ldrb	r2, [r3, #1]	@ zero_extendqisi2
	cmp	r2, #0
	bne	.L1049
.L1007:
	mov	r2, #1
	str	r2, [r3, #64]
	ldr	r2, [r4, #2620]
	mov	r1, #0
	add	r3, r7, r8, lsl #2
	add	r8, r8, #1
	str	r1, [r2, #60]
	ldr	r2, [r4, #2620]
	str	r2, [r3, #2688]
.L1005:
	ldr	r1, [r5, #1060]
	add	r6, r6, #1
	add	r9, r9, #4
	cmp	r1, r6
	bhi	.L1009
.L1004:
	ldr	r2, [r7, #2596]
	str	r8, [r7, #2612]
	cmp	r2, r8
	bls	.L1014
	add	r3, r8, #668
	mov	r0, #0
	add	r3, r3, #3
	add	r3, r7, r3, lsl #2
.L1013:
	add	r8, r8, #1
	str	r0, [r3, #4]!
	cmp	r8, r2
	bne	.L1013
.L1014:
	ldr	r3, [r5, #1064]
	add	r4, r1, r3
	cmp	r4, r6
	movls	r8, #0
	bls	.L1012
	add	r9, r6, #1296
	add	r10, r6, #5120
	add	r9, r9, #1
	add	r10, r10, #47
	add	r10, r7, r10
	mov	r8, #0
	add	r9, r7, r9, lsl #2
	str	r8, [fp, #-48]
.L1019:
	ldrb	r3, [r10, #1]!	@ zero_extendqisi2
	cmp	r3, #0
	beq	.L1015
	ldr	ip, [r7, #2600]
	ldr	r0, [r5, #140]
	ldr	r3, [r9]
	cmp	ip, #0
	add	r0, r0, r3
	beq	.L1015
	add	r1, r7, #2608
	mov	r3, #0
	add	r1, r1, #8
	b	.L1018
.L1016:
	add	r3, r3, #1
	cmp	r3, ip
	beq	.L1015
.L1018:
	ldr	r2, [r1, #4]!
	ldr	lr, [r2, #8]
	cmp	lr, r0
	bne	.L1016
	ldr	r8, [r5, #160]
	ldr	lr, [r2, #32]
	cmp	r8, lr
	bne	.L1016
	add	r8, r7, r3, lsl #2
	mov	r3, #1
	strb	r3, [r2, #1]
	ldr	r3, [r8, #2620]
	ldrb	r2, [r3, #1]	@ zero_extendqisi2
	cmp	r2, #0
	bne	.L1050
.L1017:
	ldr	r1, [fp, #-48]
	mov	r2, #1
	str	r2, [r3, #64]
	ldr	r2, [r8, #2620]
	add	r3, r7, r1, lsl #2
	add	r1, r1, #1
	str	r1, [fp, #-48]
	mov	r1, #0
	str	r1, [r2, #60]
	ldr	r2, [r8, #2620]
	str	r2, [r3, #2756]
.L1015:
	add	r6, r6, #1
	add	r9, r9, #4
	cmp	r4, r6
	bhi	.L1019
	ldr	r8, [fp, #-48]
	ldr	r2, [r7, #2596]
.L1012:
	cmp	r2, r8
	str	r8, [r7, #2616]
	bls	.L1003
	add	r1, r8, #688
	mov	r3, #0
	add	r7, r7, r1, lsl #2
.L1021:
	add	r8, r8, #1
	str	r3, [r7, #4]!
	cmp	r8, r2
	bne	.L1021
.L1003:
	sub	sp, fp, #40
	ldmfd	sp, {r4, r5, r6, r7, r8, r9, r10, fp, sp, pc}
.L1049:
	ldr	r1, [r3, #28]
	mov	r2, #1
	ldr	r0, [r7, #252]
	bl	FSP_SetRef
	ldr	r3, [r4, #2620]
	b	.L1007
.L1050:
	ldr	r1, [r3, #28]
	mov	r2, #1
	ldr	r0, [r7, #252]
	bl	FSP_SetRef
	ldr	r3, [r8, #2620]
	b	.L1017
.L1023:
	mov	r8, r1
	mov	r6, r1
	b	.L1004
	UNWIND(.fnend)
	.size	HEVC_UpdateReflist, .-HEVC_UpdateReflist
	.align	2
	.global	HEVC_UpdateLTReflist
	.type	HEVC_UpdateLTReflist, %function
HEVC_UpdateLTReflist:
	UNWIND(.fnstart)
	@ args = 0, pretend = 0, frame = 16
	@ frame_needed = 1, uses_anonymous_args = 0
	UNWIND(.movsp ip)
	mov	ip, sp
	stmfd	sp!, {r4, r5, r6, r7, r8, r9, r10, fp, ip, lr, pc}
	UNWIND(.pad #4)
	UNWIND(.save {r4, r5, r6, r7, r8, r9, r10, fp, ip, lr})
	UNWIND(.setfp fp, ip, #-4)
	sub	fp, ip, #4
	UNWIND(.pad #20)
	sub	sp, sp, #20
	add	r5, r0, #4096
	ldr	r2, [r0, #2380]
	mov	r7, r0
	ldr	r3, [r5, #164]
	mov	r0, #1888
	ldr	ip, [r7, #2376]
	movw	lr, #12660
	mov	r1, #1
	mla	r0, r0, r3, r2
	ldr	r3, [r5, #1060]
	ldr	r2, [r5, #1064]
	add	r2, r3, r2
	ldr	r3, [r5, #1068]
	sub	r2, r2, #1
	ldr	r0, [r0, #32]
	sub	r10, r3, #1
	cmp	r10, r2
	mla	r2, lr, r0, ip
	ldr	r2, [r2, #116]
	mov	r2, r1, asl r2
	ble	.L1062
	add	r9, r3, #1312
	add	r3, r3, #5120
	add	r9, r9, r1
	add	r3, r3, #48
	add	r3, r7, r3
	sub	r4, r2, #1
	add	r9, r7, r9, lsl #2
	mov	r8, #0
	str	r8, [fp, #-52]
	mov	r8, r3
	str	r1, [fp, #-56]
.L1058:
	ldrb	r3, [r8, #-1]!	@ zero_extendqisi2
	cmp	r3, #0
	beq	.L1053
	ldrb	r0, [r9, #-944]	@ zero_extendqisi2
	ldr	ip, [r9]
	ldr	lr, [r7, #2600]
	cmp	r0, #0
	andeq	ip, ip, r4
	cmp	lr, #0
	ble	.L1053
	add	r1, r7, #2608
	mov	r3, #0
	add	r1, r1, #8
	str	r7, [fp, #-48]
	b	.L1057
.L1056:
	add	r3, r3, #1
	cmp	r3, lr
	beq	.L1069
.L1057:
	ldr	r2, [r1, #4]!
	cmp	r0, #0
	ldr	r6, [r2, #8]
	andeq	r6, r6, r4
	cmp	ip, r6
	bne	.L1056
	ldr	r6, [r5, #160]
	ldr	r7, [r2, #32]
	cmp	r7, r6
	bne	.L1056
	ldr	r7, [fp, #-48]
	mov	ip, #0
	ldr	r1, [fp, #-52]
	ldr	r0, [fp, #-56]
	add	r3, r7, r3, lsl #2
	strb	r0, [r2, #1]
	add	r2, r7, r1, lsl #2
	add	r1, r1, #1
	str	r1, [fp, #-52]
	ldr	r1, [r3, #2620]
	str	ip, [r1, #64]
	ldr	r1, [r3, #2620]
	str	r0, [r1, #60]
	ldr	r3, [r3, #2620]
	str	r3, [r2, #2824]
.L1053:
	ldr	r3, [r5, #1060]
	sub	r10, r10, #1
	ldr	r2, [r5, #1064]
	sub	r9, r9, #4
	add	r3, r3, r2
	sub	r3, r3, #1
	cmp	r3, r10
	blt	.L1058
	ldr	r8, [fp, #-52]
	mov	r3, r8
.L1052:
	ldr	r2, [r7, #2596]
	str	r3, [r7, #2608]
	cmp	r2, r8
	ble	.L1051
	add	r3, r8, #704
	mov	r1, #0
	add	r3, r3, #1
	add	r3, r7, r3, lsl #2
.L1060:
	add	r8, r8, #1
	str	r1, [r3, #4]!
	cmp	r8, r2
	bne	.L1060
.L1051:
	sub	sp, fp, #40
	ldmfd	sp, {r4, r5, r6, r7, r8, r9, r10, fp, sp, pc}
.L1069:
	ldr	r7, [fp, #-48]
	b	.L1053
.L1062:
	mov	r3, #0
	mov	r8, r3
	b	.L1052
	UNWIND(.fnend)
	.size	HEVC_UpdateLTReflist, .-HEVC_UpdateLTReflist
	.align	2
	.global	HEVC_GetAPC
	.type	HEVC_GetAPC, %function
HEVC_GetAPC:
	UNWIND(.fnstart)
	@ args = 0, pretend = 0, frame = 0
	@ frame_needed = 1, uses_anonymous_args = 0
	UNWIND(.movsp ip)
	mov	ip, sp
	stmfd	sp!, {r4, r5, r6, r7, fp, ip, lr, pc}
	UNWIND(.pad #4)
	UNWIND(.save {r4, r5, r6, r7, fp, ip, lr})
	UNWIND(.setfp fp, ip, #-4)
	sub	fp, ip, #4
	UNWIND(.pad #16)
	sub	sp, sp, #16
	subs	r5, r1, #0
	mov	r6, r0
	beq	.L1088
	ldr	r7, [r0, #3528]
	mov	r3, #200
	mul	r3, r3, r7
	add	r2, r0, r3
	add	r1, r2, #12544
	ldr	r1, [r1]
	cmp	r1, #0
	beq	.L1073
	movw	r0, #12552
	ldr	r4, [r2, r0]
	cmp	r4, #0
	addne	r3, r3, #12544
	addne	r3, r3, #8
	movne	r4, #0
	addne	r3, r6, r3
	bne	.L1076
	b	.L1074
.L1079:
	ldr	r2, [r3, #4]!
	cmp	r2, #0
	beq	.L1074
.L1076:
	add	r4, r4, #1
	cmp	r4, r1
	bne	.L1079
.L1073:
	ldr	r1, .L1089
	mov	r0, #0
	bl	dprint_vfmw
	mvn	r0, #0
.L1086:
	sub	sp, fp, #28
	ldmfd	sp, {r4, r5, r6, r7, fp, sp, pc}
.L1074:
	ldr	r1, [r5, #28]
	ldr	r0, [r6, #252]
	bl	FSP_GetLogicFs
	subs	ip, r0, #0
	beq	.L1077
	ldr	r3, [ip, #28]
	cmp	r3, #0
	beq	.L1077
	mov	r2, #50
	mov	r3, #200
	mla	r2, r2, r7, r4
	mov	lr, #1
	mla	r7, r3, r7, r6
	ldr	r1, .L1089+4
	mov	r3, r4
	mov	r0, #13
	add	r6, r6, r2, lsl #2
	add	r7, r7, #12544
	add	r6, r6, #12288
	str	lr, [r6, #264]
	ldr	r2, [ip, #28]
	ldr	r2, [r2, #4]
	str	r2, [r6, #328]
	ldr	r2, [r5, #8]
	str	r2, [r6, #392]
	ldr	r2, [r7, #4]
	add	r2, r2, lr
	str	r2, [r7, #4]
	ldr	r2, [r5, #228]
	bl	dprint_vfmw
	mov	r0, #0
	str	r4, [r5, #24]
	sub	sp, fp, #28
	ldmfd	sp, {r4, r5, r6, r7, fp, sp, pc}
.L1077:
	ldrb	r1, [r5, #1]	@ zero_extendqisi2
	mov	r0, #0
	ldr	r2, [r5, #28]
	ldr	r3, [r5, #8]
	stmia	sp, {r1, ip}
	str	r0, [sp, #8]
	ldr	r1, .L1089+8
	bl	dprint_vfmw
	mvn	r0, #0
	b	.L1086
.L1088:
	mov	r0, r5
	movw	r3, #11694
	ldr	r2, .L1089+12
	ldr	r1, .L1089+16
	bl	dprint_vfmw
	mvn	r0, #0
	b	.L1086
.L1090:
	.align	2
.L1089:
	.word	.LC91
	.word	.LC89
	.word	.LC90
	.word	.LC87
	.word	.LC88
	UNWIND(.fnend)
	.size	HEVC_GetAPC, .-HEVC_GetAPC
	.align	2
	.global	HEVC_CheckFrameStore
	.type	HEVC_CheckFrameStore, %function
HEVC_CheckFrameStore:
	UNWIND(.fnstart)
	@ args = 0, pretend = 0, frame = 0
	@ frame_needed = 1, uses_anonymous_args = 0
	UNWIND(.movsp ip)
	mov	ip, sp
	stmfd	sp!, {r4, fp, ip, lr, pc}
	UNWIND(.pad #4)
	UNWIND(.save {r4, fp, ip, lr})
	UNWIND(.setfp fp, ip, #-4)
	sub	fp, ip, #4
	UNWIND(.pad #12)
	sub	sp, sp, #12
	subs	r4, r1, #0
	beq	.L1101
	ldr	r0, [r0, #252]
	ldr	r1, [r4, #28]
	bl	FSP_GetLogicFs
	cmp	r0, #0
	beq	.L1093
	ldrsb	r2, [r0, #1]
	cmp	r2, #3
	cmpne	r2, #0
	moveq	r0, #1
	movne	r0, #0
	beq	.L1112
	ldr	r3, [r4, #52]
	cmp	r3, #1
	beq	.L1098
	ldr	r2, [r4, #48]
	ldrb	r3, [r4]	@ zero_extendqisi2
	cmp	r2, #0
	beq	.L1097
	cmp	r3, #1
	beq	.L1097
.L1109:
	sub	sp, fp, #16
	ldmfd	sp, {r4, fp, sp, pc}
.L1112:
	ldr	r3, [r4, #28]
	mov	r0, #13
	str	r2, [sp]
	ldr	r1, .L1113
	ldr	r2, .L1113+4
	bl	dprint_vfmw
.L1095:
	ldr	r3, [r4, #52]
	cmp	r3, #1
	beq	.L1098
	ldr	r3, [r4, #8]
	mov	r0, #1
	ldr	r2, .L1113+4
	ldr	r1, .L1113+8
	bl	dprint_vfmw
	mvn	r0, #2
	b	.L1109
.L1093:
	ldr	ip, [r4, #28]
	mov	r2, r4
	ldr	r3, [r4, #8]
	mov	r0, #1
	ldr	r1, .L1113+12
	str	ip, [sp, #4]
	ldr	ip, [r4, #52]
	str	ip, [sp]
	bl	dprint_vfmw
	b	.L1095
.L1097:
	str	r3, [sp, #4]
	mov	r0, #1
	str	r2, [sp]
	mov	r3, r4
	ldr	r2, .L1113+4
	ldr	r1, .L1113+16
	bl	dprint_vfmw
	mvn	r0, #0
	b	.L1109
.L1101:
	mvn	r0, #0
	b	.L1109
.L1098:
	mov	r2, #1
	mov	r3, #2
	strb	r2, [r4, #2]
	mvn	r0, #2
	str	r3, [r4, #52]
	b	.L1109
.L1114:
	.align	2
.L1113:
	.word	.LC92
	.word	.LANCHOR0+336
	.word	.LC94
	.word	.LC93
	.word	.LC95
	UNWIND(.fnend)
	.size	HEVC_CheckFrameStore, .-HEVC_CheckFrameStore
	.align	2
	.global	HEVC_GetImagePara
	.type	HEVC_GetImagePara, %function
HEVC_GetImagePara:
	UNWIND(.fnstart)
	@ args = 0, pretend = 0, frame = 8
	@ frame_needed = 1, uses_anonymous_args = 0
	UNWIND(.movsp ip)
	mov	ip, sp
	stmfd	sp!, {r4, r5, r6, r7, r8, r9, r10, fp, ip, lr, pc}
	UNWIND(.pad #4)
	UNWIND(.save {r4, r5, r6, r7, r8, r9, r10, fp, ip, lr})
	UNWIND(.setfp fp, ip, #-4)
	sub	fp, ip, #4
	UNWIND(.pad #20)
	sub	sp, sp, #20
	add	r8, r1, #672
	mov	r4, r1
	mvn	r7, #0
	ldrd	r2, [r8, #-8]
	mvn	r6, #0
	ldr	r1, [r1, #12]
	mov	r5, r0
	cmp	r3, r7
	cmpeq	r2, r6
	str	r1, [fp, #-52]
	beq	.L1117
	ldr	ip, [r0, #2600]
	cmp	ip, #0
	beq	.L1117
	add	r10, r0, #2608
	mvn	r3, #0
	mvn	r6, #1
	mvn	r7, #0
	add	r10, r10, #8
	str	r3, [fp, #-48]
	mov	r9, #0
	b	.L1120
.L1154:
	ldr	r1, [r10]
	ldr	ip, [r5, #2600]
	add	r1, r1, #672
	ldrd	r0, [r1, #-8]
	cmp	r1, r7
	cmpeq	r0, r6
	strcc	r9, [fp, #-48]
	movcc	r6, r0
	movcc	r7, r1
.L1119:
	add	r9, r9, #1
	cmp	r9, ip
	bcs	.L1157
.L1120:
	ldr	r1, [r10, #4]!
	cmp	r1, #0
	beq	.L1119
	ldr	r1, [r1, #28]
	ldr	r0, [r5, #252]
	bl	FSP_GetLogicFs
	cmp	r0, #0
	beq	.L1156
	ldrsb	r1, [r0, #1]
	cmp	r1, #3
	cmpne	r1, #0
	bne	.L1154
.L1156:
	ldr	ip, [r5, #2600]
	add	r9, r9, #1
	cmp	r9, ip
	bcc	.L1120
.L1157:
	ldr	r3, [fp, #-48]
	cmn	r3, #1
	beq	.L1117
	ldrd	r2, [r8, #-8]
	cmp	r3, r7
	cmpeq	r2, r6
	bhi	.L1158
.L1117:
	ldrb	r3, [r4, #145]	@ zero_extendqisi2
	ldrb	r2, [r4, #144]	@ zero_extendqisi2
	and	r3, r3, #195
	bfc	r3, #0, #2
	bfc	r2, #0, #2
	strb	r3, [r4, #145]
	strb	r2, [r4, #144]
	ldr	r3, [r5, #144]
	str	r3, [r4, #188]
	ldr	r3, [r5, #2396]
	ldrh	r3, [r3, #124]
	cmp	r3, #1
	moveq	r2, #0
	beq	.L1121
	movw	r2, #257
	cmp	r3, r2
	movne	r2, #1
	bne	.L1121
	ldr	r2, [r5, #2908]
	subs	r2, r2, #1
	movne	r2, #1
.L1121:
	ldr	r3, [r5, #2400]
	ldrb	r3, [r3, #2066]	@ zero_extendqisi2
	cmp	r3, #0
	moveq	r1, #3
	beq	.L1122
	ldr	r3, [r4, #40]
	cmp	r3, #1
	cmpne	r3, #11
	moveq	r1, #1
	bne	.L1159
.L1123:
	ldr	r2, [r4, #44]
	clz	r2, r2
	mov	r2, r2, lsr #5
.L1122:
	ldrb	r3, [r4, #145]	@ zero_extendqisi2
	mov	ip, #2
	ldr	r0, [r4, #48]
	bfi	r3, ip, #4, #2
	ldr	lr, [fp, #-52]
	cmp	r0, #0
	bfi	r3, r1, #2, #2
	ldrb	r0, [r4, #144]	@ zero_extendqisi2
	bfi	r3, r2, #0, #2
	ldrb	ip, [r4, #4]	@ zero_extendqisi2
	strb	r3, [r4, #145]
	bfi	r0, lr, #0, #2
	ldrne	r3, [r4, #16]
	ldrb	r1, [r4, #146]	@ zero_extendqisi2
	ldrb	lr, [r4, #3]	@ zero_extendqisi2
	strne	r3, [r4, #232]
	strb	r0, [r4, #144]
	bfi	r1, lr, #1, #1
	str	ip, [r4, #200]
	strb	r1, [r4, #146]
	ldr	r3, [r5, #2416]
	ldr	r1, [r4, #28]
	ldr	r3, [r3, #604]
	str	r3, [r4, #204]
	ldr	r3, [r5, #2416]
	ldr	r3, [r3, #608]
	str	r3, [r4, #208]
	ldr	r3, [r5, #2416]
	ldr	r3, [r3, #612]
	str	r3, [r4, #212]
	ldr	r0, [r5, #252]
	bl	FSP_GetFsImagePtr
	subs	r5, r0, #0
	beq	.L1115
	ldr	r3, .L1160
	mov	r2, #640
	add	r1, r4, #80
	ldr	r3, [r3, #52]
	blx	r3
	mov	r3, #16
	str	r3, [r5, #296]
	mov	r3, #1
	ldr	r2, [r4, #56]
	strb	r3, [r5, #291]
	cmp	r2, #0
	strb	r3, [r5, #289]
	moveq	r3, #0
	movne	r3, #4
	strb	r3, [r5, #284]
	ldr	r3, [r4, #68]
	str	r3, [r5, #236]
.L1115:
	sub	sp, fp, #40
	ldmfd	sp, {r4, r5, r6, r7, r8, r9, r10, fp, sp, pc}
.L1158:
	ldr	r0, [r5, #252]
	strd	r6, [sp]
	bl	IsPtsRewind
	cmp	r0, #0
	bne	.L1117
	ldrd	r2, [r8, #-8]
	mov	r0, #29
	ldr	r1, .L1160+4
	strd	r6, [sp]
	bl	dprint_vfmw
	ldr	r3, [fp, #-48]
	add	r10, r5, r3, lsl #2
	ldrd	r2, [r8, #-8]
	ldr	r1, [r10, #2620]
	add	r1, r1, #672
	strd	r2, [r1, #-8]
	strd	r6, [r8, #-8]
	b	.L1117
.L1159:
	bic	r3, r3, #8
	cmp	r3, #2
	moveq	r1, #2
	movne	r1, #3
	b	.L1123
.L1161:
	.align	2
.L1160:
	.word	vfmw_Osal_Func_Ptr_S
	.word	.LC96
	UNWIND(.fnend)
	.size	HEVC_GetImagePara, .-HEVC_GetImagePara
	.align	2
	.global	HEVC_CheckOutputImage
	.type	HEVC_CheckOutputImage, %function
HEVC_CheckOutputImage:
	UNWIND(.fnstart)
	@ args = 0, pretend = 0, frame = 0
	@ frame_needed = 1, uses_anonymous_args = 0
	UNWIND(.movsp ip)
	mov	ip, sp
	stmfd	sp!, {fp, ip, lr, pc}
	UNWIND(.pad #4)
	UNWIND(.save {fp, ip, lr})
	UNWIND(.setfp fp, ip, #-4)
	sub	fp, ip, #4
	cmp	r1, #19
	bhi	.L1164
	mov	r3, #720
	mla	r1, r3, r1, r0
	add	r1, r1, #12736
	ldrb	r0, [r1, #9]	@ zero_extendqisi2
	adds	r0, r0, #0
	movne	r0, #1
	ldmfd	sp, {fp, sp, pc}
.L1164:
	mvn	r0, #0
	ldmfd	sp, {fp, sp, pc}
	UNWIND(.fnend)
	.size	HEVC_CheckOutputImage, .-HEVC_CheckOutputImage
	.align	2
	.global	HEVC_DECRecycleImage
	.type	HEVC_DECRecycleImage, %function
HEVC_DECRecycleImage:
	UNWIND(.fnstart)
	@ args = 0, pretend = 0, frame = 0
	@ frame_needed = 1, uses_anonymous_args = 0
	UNWIND(.movsp ip)
	mov	ip, sp
	stmfd	sp!, {r4, r5, r6, r7, r8, r9, fp, ip, lr, pc}
	UNWIND(.pad #4)
	UNWIND(.save {r4, r5, r6, r7, r8, r9, fp, ip, lr})
	UNWIND(.setfp fp, ip, #-4)
	sub	fp, ip, #4
	mov	r8, r0
	ldr	r0, [r0, #252]
	mov	r9, r1
	bl	FSP_GetLogicFs
	cmp	r0, #0
	beq	.L1170
	ldrsb	r3, [r0, #1]
	cmp	r3, #0
	addne	r4, r0, #576
	addne	r5, r0, #608
	movne	r6, #0
	movne	r7, #0
	beq	.L1175
.L1169:
	ldr	r1, [r4, #8]!
	cmp	r1, #0
	beq	.L1168
	ldr	r0, [r8, #252]
	bl	FreeUsdByDec
	strd	r6, [r4]
.L1168:
	cmp	r4, r5
	bne	.L1169
	ldr	r0, [r8, #252]
	mov	r1, r9
	mov	r2, #0
	bl	FSP_SetDisplay
	mov	r0, #0
	ldmfd	sp, {r4, r5, r6, r7, r8, r9, fp, sp, pc}
.L1175:
	ldr	r1, .L1176
	mov	r0, #1
	bl	dprint_vfmw
	mvn	r0, #0
	ldmfd	sp, {r4, r5, r6, r7, r8, r9, fp, sp, pc}
.L1170:
	mvn	r0, #0
	ldmfd	sp, {r4, r5, r6, r7, r8, r9, fp, sp, pc}
.L1177:
	.align	2
.L1176:
	.word	.LC97
	UNWIND(.fnend)
	.size	HEVC_DECRecycleImage, .-HEVC_DECRecycleImage
	.align	2
	.global	HEVC_GetSLHDR1MasteringDisplayInfo
	.type	HEVC_GetSLHDR1MasteringDisplayInfo, %function
HEVC_GetSLHDR1MasteringDisplayInfo:
	UNWIND(.fnstart)
	@ args = 0, pretend = 0, frame = 0
	@ frame_needed = 1, uses_anonymous_args = 0
	UNWIND(.movsp ip)
	mov	ip, sp
	stmfd	sp!, {r4, fp, ip, lr, pc}
	UNWIND(.pad #4)
	UNWIND(.save {r4, fp, ip, lr})
	UNWIND(.setfp fp, ip, #-4)
	sub	fp, ip, #4
	ldr	r3, [r1, #572]
	movw	r2, #14999
	cmp	r3, r2
	bhi	.L1182
	sub	r2, r3, #8448
	movw	ip, #4749
	sub	r2, r2, #52
	cmp	r2, ip
	movls	r3, #1
	strlsb	r3, [r0, #3]
	bls	.L1180
	sub	r3, r3, #13248
	movw	r2, #1749
	sub	r3, r3, #2
	cmp	r3, r2
	bhi	.L1182
	mov	r3, #2
	strb	r3, [r0, #3]
.L1180:
	ldr	r3, [r1, #604]
	movw	r2, #56963
	movt	r2, 17179
	mov	ip, #50
	add	r3, r3, #249856
	movw	lr, #10000
	add	r3, r3, #144
	movw	r4, #2063
	movt	r4, 1526
	umull	r2, r3, r3, r2
	mov	r3, r3, lsr #17
	mul	r3, ip, r3
	cmp	r3, lr
	movcs	r3, lr
	strh	r3, [r0, #4]	@ movhi
	ldr	r3, [r1, #608]
	cmp	r3, r4
	movwls	r2, #5977
	movtls	r2, 53687
	umullls	r2, r3, r3, r2
	ubfxls	lr, r3, #13, #16
	strh	lr, [r0, #6]	@ movhi
	ldmfd	sp, {r4, fp, sp, pc}
.L1182:
	mov	r3, #0
	strb	r3, [r0, #3]
	b	.L1180
	UNWIND(.fnend)
	.size	HEVC_GetSLHDR1MasteringDisplayInfo, .-HEVC_GetSLHDR1MasteringDisplayInfo
	.align	2
	.global	HEVC_PrintSLHDR1Info
	.type	HEVC_PrintSLHDR1Info, %function
HEVC_PrintSLHDR1Info:
	UNWIND(.fnstart)
	@ args = 0, pretend = 0, frame = 0
	@ frame_needed = 1, uses_anonymous_args = 0
	UNWIND(.movsp ip)
	mov	ip, sp
	stmfd	sp!, {r4, r5, r6, r7, fp, ip, lr, pc}
	UNWIND(.pad #4)
	UNWIND(.save {r4, r5, r6, r7, fp, ip, lr})
	UNWIND(.setfp fp, ip, #-4)
	sub	fp, ip, #4
	ldr	r1, .L1204
	mov	r4, r0
	ldrb	r2, [r0]	@ zero_extendqisi2
	mov	r0, #32
	bl	dprint_vfmw
	ldrb	r2, [r4, #1]	@ zero_extendqisi2
	ldr	r1, .L1204+4
	mov	r0, #32
	bl	dprint_vfmw
	ldrb	r2, [r4, #2]	@ zero_extendqisi2
	ldr	r1, .L1204+8
	mov	r0, #32
	bl	dprint_vfmw
	ldrb	r2, [r4, #3]	@ zero_extendqisi2
	ldr	r1, .L1204+12
	mov	r0, #32
	bl	dprint_vfmw
	ldrh	r2, [r4, #4]
	ldr	r1, .L1204+16
	mov	r0, #32
	bl	dprint_vfmw
	ldrh	r2, [r4, #6]
	ldr	r1, .L1204+20
	mov	r0, #32
	bl	dprint_vfmw
	ldrb	r2, [r4, #8]	@ zero_extendqisi2
	ldr	r1, .L1204+24
	mov	r0, #32
	bl	dprint_vfmw
	ldrb	r2, [r4, #9]	@ zero_extendqisi2
	ldr	r1, .L1204+28
	mov	r0, #32
	bl	dprint_vfmw
	ldrb	r5, [r4, #1]	@ zero_extendqisi2
	ldrb	r2, [r4, #10]	@ zero_extendqisi2
	mov	r0, #32
	cmp	r5, #0
	bne	.L1186
	ldr	r1, .L1204+32
	bl	dprint_vfmw
	ldrb	r2, [r4, #11]	@ zero_extendqisi2
	ldr	r1, .L1204+36
	mov	r0, #32
	bl	dprint_vfmw
	ldrb	r2, [r4, #12]	@ zero_extendqisi2
	ldr	r1, .L1204+40
	mov	r0, #32
	bl	dprint_vfmw
	ldrb	r2, [r4, #13]	@ zero_extendqisi2
	ldr	r1, .L1204+44
	mov	r0, #32
	bl	dprint_vfmw
	ldrb	r2, [r4, #14]	@ zero_extendqisi2
	ldr	r1, .L1204+48
	mov	r0, #32
	bl	dprint_vfmw
	ldrb	r2, [r4, #15]	@ zero_extendqisi2
	ldr	r1, .L1204+52
	mov	r0, #32
	bl	dprint_vfmw
	ldrb	r3, [r4, #15]	@ zero_extendqisi2
	cmp	r3, #0
	addne	r7, r4, #15
	addne	r6, r4, #26
	beq	.L1191
.L1190:
	mov	r3, r5
	ldrb	r2, [r7, #1]!	@ zero_extendqisi2
	ldr	r1, .L1204+56
	mov	r0, #32
	bl	dprint_vfmw
	mov	r3, r5
	ldrb	r2, [r6, #1]!	@ zero_extendqisi2
	mov	r0, #32
	ldr	r1, .L1204+60
	add	r5, r5, #1
	bl	dprint_vfmw
	ldrb	r3, [r4, #15]	@ zero_extendqisi2
	cmp	r3, r5
	bhi	.L1190
.L1191:
	ldrb	r2, [r4, #38]	@ zero_extendqisi2
	mov	r0, #32
	ldr	r1, .L1204+64
	bl	dprint_vfmw
	ldrb	r3, [r4, #38]	@ zero_extendqisi2
	cmp	r3, #0
	addne	r7, r4, #38
	addne	r6, r4, #45
	movne	r5, #0
	beq	.L1192
.L1193:
	mov	r3, r5
	ldrb	r2, [r7, #1]!	@ zero_extendqisi2
	ldr	r1, .L1204+68
	mov	r0, #32
	bl	dprint_vfmw
	mov	r3, r5
	ldrb	r2, [r6, #1]!	@ zero_extendqisi2
	mov	r0, #32
	ldr	r1, .L1204+72
	add	r5, r5, #1
	bl	dprint_vfmw
	ldrb	r3, [r4, #38]	@ zero_extendqisi2
	cmp	r3, r5
	bhi	.L1193
.L1192:
	movw	r2, #290
	ldr	r1, .L1204+76
	mov	r0, #32
	sub	sp, fp, #28
	ldmfd	sp, {r4, r5, r6, r7, fp, sp, lr}
	b	dprint_vfmw
.L1186:
	ldr	r1, .L1204+80
	bl	dprint_vfmw
	ldrb	r3, [r4, #10]	@ zero_extendqisi2
	cmp	r3, #0
	addne	r7, r4, #10
	addne	r6, r4, #78
	movne	r5, #0
	beq	.L1198
.L1197:
	mov	r2, r5
	ldrh	r3, [r7, #2]!
	ldr	r1, .L1204+84
	mov	r0, #32
	bl	dprint_vfmw
	ldrh	r3, [r6, #2]!
	mov	r2, r5
	ldr	r1, .L1204+88
	mov	r0, #32
	add	r5, r5, #1
	bl	dprint_vfmw
	ldrb	r3, [r4, #10]	@ zero_extendqisi2
	cmp	r3, r5
	bhi	.L1197
.L1198:
	ldrb	r2, [r4, #148]	@ zero_extendqisi2
	mov	r0, #32
	ldr	r1, .L1204+92
	bl	dprint_vfmw
	ldrb	r3, [r4, #148]	@ zero_extendqisi2
	cmp	r3, #0
	addne	r7, r4, #148
	addne	r6, r4, #216
	movne	r5, #0
	beq	.L1196
.L1199:
	mov	r3, r5
	ldrh	r2, [r7, #2]!
	ldr	r1, .L1204+96
	mov	r0, #32
	bl	dprint_vfmw
	mov	r3, r5
	ldrh	r2, [r6, #2]!
	mov	r0, #32
	ldr	r1, .L1204+100
	add	r5, r5, #1
	bl	dprint_vfmw
	ldrb	r3, [r4, #148]	@ zero_extendqisi2
	cmp	r3, r5
	bhi	.L1199
.L1196:
	movw	r3, #286
	ldr	r1, .L1204+104
	ldrh	r2, [r4, r3]
	add	r4, r4, #288
	mov	r0, #32
	bl	dprint_vfmw
	ldr	r1, .L1204+108
	ldrh	r2, [r4]
	mov	r0, #32
	bl	dprint_vfmw
	b	.L1192
.L1205:
	.align	2
.L1204:
	.word	.LC98
	.word	.LC99
	.word	.LC100
	.word	.LC101
	.word	.LC102
	.word	.LC103
	.word	.LC104
	.word	.LC105
	.word	.LC106
	.word	.LC107
	.word	.LC108
	.word	.LC109
	.word	.LC110
	.word	.LC111
	.word	.LC113
	.word	.LC114
	.word	.LC112
	.word	.LC115
	.word	.LC116
	.word	.LC125
	.word	.LC117
	.word	.LC119
	.word	.LC120
	.word	.LC118
	.word	.LC123
	.word	.LC124
	.word	.LC121
	.word	.LC122
	UNWIND(.fnend)
	.size	HEVC_PrintSLHDR1Info, .-HEVC_PrintSLHDR1Info
	.align	2
	.global	HEVC_GetSLHDR1Info
	.type	HEVC_GetSLHDR1Info, %function
HEVC_GetSLHDR1Info:
	UNWIND(.fnstart)
	@ args = 0, pretend = 0, frame = 296
	@ frame_needed = 1, uses_anonymous_args = 0
	UNWIND(.movsp ip)
	mov	ip, sp
	stmfd	sp!, {r4, r5, r6, r7, fp, ip, lr, pc}
	UNWIND(.pad #4)
	UNWIND(.save {r4, r5, r6, r7, fp, ip, lr})
	UNWIND(.setfp fp, ip, #-4)
	sub	fp, ip, #4
	UNWIND(.pad #312)
	sub	sp, sp, #312
	mov	r4, r2
	mov	r6, r1
	movw	r2, #290
	mov	r1, #0
	mov	r5, r0
	sub	r0, fp, #320
	bl	memset
	ldrb	r3, [r6, #1]	@ zero_extendqisi2
	ldrb	r2, [r4, #56]	@ zero_extendqisi2
	cmp	r3, #0
	ldrb	r1, [r4, #568]	@ zero_extendqisi2
	beq	.L1246
	cmp	r2, #0
	bne	.L1248
.L1246:
	ldrb	ip, [r4, #59]	@ zero_extendqisi2
	ldrb	r0, [r4, #128]	@ zero_extendqisi2
.L1208:
	str	r0, [sp, #12]
	mov	r0, #22
	str	r1, [sp, #4]
	str	r2, [sp]
	str	ip, [sp, #8]
	ldr	r2, .L1251
	ldr	r1, .L1251+4
	bl	dprint_vfmw
	mov	r3, #0
	strb	r3, [r5, #458]
.L1206:
	sub	sp, fp, #28
	ldmfd	sp, {r4, r5, r6, r7, fp, sp, pc}
.L1248:
	cmp	r1, #0
	beq	.L1246
	ldrb	r0, [r4, #59]	@ zero_extendqisi2
	cmp	r0, #0
	bne	.L1211
	ldrb	r0, [r4, #128]	@ zero_extendqisi2
	cmp	r0, #0
	beq	.L1249
.L1211:
	mov	r3, #1
	strb	r3, [r5, #458]
	ldr	r0, [r6, #24]
	ldrb	r1, [r4, #57]	@ zero_extendqisi2
	ldrb	r2, [r4, #58]	@ zero_extendqisi2
	cmp	r0, #9
	strb	r1, [fp, #-320]
	strb	r2, [fp, #-319]
	bne	.L1213
	ldr	r2, [r6, #32]
	cmp	r2, #9
	streqb	r3, [fp, #-312]
.L1213:
	ldrb	r3, [r4, #60]	@ zero_extendqisi2
	cmp	r3, #1
	beq	.L1214
	ldrb	r2, [r4, #129]	@ zero_extendqisi2
	cmp	r2, #1
	beq	.L1214
	cmp	r2, #9
	cmpne	r3, #9
	ldrneb	r3, [fp, #-312]	@ zero_extendqisi2
	moveq	r3, #1
	strb	r3, [fp, #-318]
.L1214:
	mov	r1, r4
	sub	r0, fp, #320
	bl	HEVC_GetSLHDR1MasteringDisplayInfo
	ldrb	r3, [fp, #-318]	@ zero_extendqisi2
	ldrb	r2, [fp, #-312]	@ zero_extendqisi2
	cmp	r2, r3
	ldreqb	r3, [fp, #-317]	@ zero_extendqisi2
	movne	r3, #0
	strb	r3, [fp, #-311]
	ldrb	r3, [fp, #-319]	@ zero_extendqisi2
	cmp	r3, #0
	bne	.L1218
	ldrb	r2, [r4, #61]	@ zero_extendqisi2
	ldrb	r7, [r4, #66]	@ zero_extendqisi2
	ldrb	ip, [r4, #62]	@ zero_extendqisi2
	ldrb	r0, [r4, #63]	@ zero_extendqisi2
	cmp	r7, #0
	ldrb	r1, [r4, #64]	@ zero_extendqisi2
	strb	r2, [fp, #-310]
	ldrb	r2, [r4, #65]	@ zero_extendqisi2
	strb	r7, [fp, #-305]
	strb	ip, [fp, #-309]
	strb	r0, [fp, #-308]
	strb	r1, [fp, #-307]
	strb	r2, [fp, #-306]
	beq	.L1223
	sub	r2, fp, #320
	add	ip, r4, #66
	add	r0, r2, #15
	add	r1, r4, #81
	add	r2, r2, #26
.L1222:
	add	r3, r3, #1
	ldrb	r6, [ip, #1]!	@ zero_extendqisi2
	ldrb	lr, [r1, #1]!	@ zero_extendqisi2
	cmp	r3, r7
	strb	r6, [r0, #1]!
	strb	lr, [r2, #1]!
	bne	.L1222
.L1223:
	ldrb	r6, [r4, #97]	@ zero_extendqisi2
	cmp	r6, #0
	strb	r6, [fp, #-282]
	beq	.L1221
	sub	r1, fp, #280
	sub	r2, fp, #272
	add	r0, r4, #97
	sub	r1, r1, #2
	add	r4, r4, #112
	sub	r2, r2, #3
	mov	r3, #0
.L1226:
	add	r3, r3, #1
	ldrb	lr, [r0, #1]!	@ zero_extendqisi2
	ldrb	ip, [r4, #1]!	@ zero_extendqisi2
	cmp	r3, r6
	strb	lr, [r1, #1]!
	strb	ip, [r2, #1]!
	bne	.L1226
.L1221:
	ldr	r3, [r5, #464]
	cmp	r3, #0
	bne	.L1250
	ldr	r2, .L1251
	mov	r0, #1
	ldr	r1, .L1251+8
	bl	dprint_vfmw
	b	.L1206
.L1218:
	ldrb	r7, [r4, #168]	@ zero_extendqisi2
	ldr	r2, [r4, #136]
	add	r7, r7, #1
	ldr	r3, [r4, #140]
	uxtb	r7, r7
	strh	r2, [fp, #-34]	@ movhi
	cmp	r7, #0
	strb	r7, [fp, #-310]
	strh	r3, [fp, #-32]	@ movhi
	beq	.L1230
	sub	r3, fp, #320
	add	ip, r4, #170
	add	r1, r4, #368
	sub	r2, fp, #242
	add	r0, r3, #10
	mov	r3, #0
.L1229:
	add	r3, r3, #1
	ldrh	r6, [ip, #2]!
	ldrh	lr, [r1, #2]!
	cmp	r3, r7
	strh	r6, [r0, #2]!	@ movhi
	strh	lr, [r2, #2]!	@ movhi
	bcc	.L1229
.L1230:
	ldrb	r6, [r4, #169]	@ zero_extendqisi2
	add	r6, r6, #1
	uxtb	r6, r6
	strb	r6, [fp, #-172]
	cmp	r6, #0
	beq	.L1221
	add	r2, r4, #432
	sub	r0, fp, #172
	add	r4, r4, #236
	add	r2, r2, #2
	sub	r1, fp, #104
	mov	r3, #0
.L1231:
	add	r3, r3, #1
	ldrh	lr, [r4, #2]!
	ldrh	ip, [r2, #2]!
	cmp	r3, r6
	strh	lr, [r0, #2]!	@ movhi
	strh	ip, [r1, #2]!	@ movhi
	bcc	.L1231
	b	.L1221
.L1250:
	ldr	r3, .L1251+12
	sub	r1, fp, #320
	movw	r2, #290
	ldr	r0, [r5, #472]
	ldr	r3, [r3, #52]
	blx	r3
	movw	r3, #290
	str	r3, [r5, #460]
	b	.L1206
.L1249:
	mov	ip, r0
	b	.L1208
.L1252:
	.align	2
.L1251:
	.word	.LANCHOR0+360
	.word	.LC126
	.word	.LC127
	.word	vfmw_Osal_Func_Ptr_S
	UNWIND(.fnend)
	.size	HEVC_GetSLHDR1Info, .-HEVC_GetSLHDR1Info
	.align	2
	.global	HEVC_ConvertHDRInfo
	.type	HEVC_ConvertHDRInfo, %function
HEVC_ConvertHDRInfo:
	UNWIND(.fnstart)
	@ args = 0, pretend = 0, frame = 0
	@ frame_needed = 1, uses_anonymous_args = 0
	UNWIND(.movsp ip)
	mov	ip, sp
	stmfd	sp!, {r4, r5, r6, fp, ip, lr, pc}
	UNWIND(.pad #4)
	UNWIND(.save {r4, r5, r6, fp, ip, lr})
	UNWIND(.setfp fp, ip, #-4)
	sub	fp, ip, #4
	ldrb	r4, [r1]	@ zero_extendqisi2
	mov	r3, r0
	mov	r0, r2
	add	lr, r3, #484
	add	lr, lr, #2
	mov	ip, r2
	strb	r4, [r3, #480]
	add	r4, r3, #492
	ldr	r6, [r1, #24]
	add	r5, r2, #580
	mov	r2, #0
	strb	r6, [r3, #481]
	ldr	r6, [r1, #32]
	strb	r6, [r3, #482]
	ldr	r6, [r1, #28]
	str	r6, [r3, #484]
	ldrb	r6, [r0, #568]!	@ zero_extendqisi2
	strb	r6, [r3, #456]
.L1254:
	ldr	r6, [r0, #4]!
	add	r2, r2, #1
	cmp	r2, #3
	strh	r6, [lr, #2]!	@ movhi
	ldr	r6, [r5, #4]!
	strh	r6, [r4, #2]!	@ movhi
	bne	.L1254
	ldr	r0, [ip, #596]
	add	lr, r3, #456
	movw	r5, #614
	add	r4, ip, #616
	mov	r2, ip
	strh	r0, [lr, #44]	@ movhi
	mov	r0, r3
	ldr	r6, [ip, #600]
	strh	r6, [lr, #46]	@ movhi
	ldr	lr, [ip, #604]
	str	lr, [r3, #504]
	ldr	lr, [ip, #608]
	str	lr, [r3, #508]
	ldrb	lr, [ip, #612]	@ zero_extendqisi2
	strb	lr, [r3, #457]
	ldrh	lr, [ip, r5]
	str	lr, [r3, #512]
	ldrh	lr, [r4]
	str	lr, [r3, #516]
	ldrb	ip, [ip, #618]	@ zero_extendqisi2
	strb	ip, [r3, #520]
	sub	sp, fp, #24
	ldmfd	sp, {r4, r5, r6, fp, sp, lr}
	b	HEVC_GetSLHDR1Info
	UNWIND(.fnend)
	.size	HEVC_ConvertHDRInfo, .-HEVC_ConvertHDRInfo
	.align	2
	.global	HEVC_AllocFrameStore
	.type	HEVC_AllocFrameStore, %function
HEVC_AllocFrameStore:
	UNWIND(.fnstart)
	@ args = 0, pretend = 0, frame = 0
	@ frame_needed = 1, uses_anonymous_args = 0
	UNWIND(.movsp ip)
	mov	ip, sp
	stmfd	sp!, {r4, r5, r6, r7, r8, r9, fp, ip, lr, pc}
	UNWIND(.pad #4)
	UNWIND(.save {r4, r5, r6, r7, r8, r9, fp, ip, lr})
	UNWIND(.setfp fp, ip, #-4)
	sub	fp, ip, #4
	add	r2, r0, #4096
	ldr	r3, [r0, #2380]
	mov	lr, #1888
	ldr	ip, [r0, #2376]
	ldr	r2, [r2, #164]
	movw	r5, #12660
	mov	r6, r0
	add	r0, r0, #12736
	mov	r1, #0
	add	r0, r0, #8
	mla	r3, lr, r2, r3
	mov	lr, r1
	ldr	r3, [r3, #32]
	strb	r1, [r6, #3521]
	mla	r5, r5, r3, ip
.L1261:
	ldr	r3, [r0, #48]
	cmp	r3, #0
	bne	.L1257
	cmp	r0, #0
	beq	.L1268
	ldr	ip, [r6, #2600]
	cmp	ip, #0
	beq	.L1268
	ldr	r2, [r6, #2620]
	cmp	r2, r0
	beq	.L1257
	add	r2, r6, #2608
	add	r2, r2, #12
	b	.L1259
.L1260:
	ldr	r1, [r2, #4]!
	cmp	r1, r0
	beq	.L1257
.L1259:
	add	r3, r3, #1
	cmp	r3, ip
	bne	.L1260
.L1268:
	mov	r7, #720
	add	r9, r6, #3584
	mla	r7, r7, lr, r6
	mov	r4, r0
	mov	r3, #1
	mov	r2, #101
	strb	r3, [r6, #3521]
	mov	r0, r9
	add	r1, r7, #12800
	str	r2, [r6, #3560]
	add	r1, r1, #24
	mov	r2, #640
	bl	memcpy
	add	r3, r7, #12736
	movw	r2, #12760
	str	r4, [r6, #3580]
	mov	r8, #0
	str	r8, [r6, #3736]
	str	r8, [r7, r2]
	strb	r8, [r3, #10]
	strb	r8, [r4]
	ldr	r3, [r6, #3580]
	str	r8, [r3, #60]
	ldr	r3, [r6, #3580]
	str	r8, [r3, #64]
	ldr	r3, [r6, #3580]
	str	r8, [r3, #52]
	ldrb	r1, [r6, #3521]	@ zero_extendqisi2
	cmp	r1, #1
	bne	.L1265
	ldr	r0, [r6, #252]
	bl	FSP_NewLogicFs
	mov	r7, r0
	mov	r1, r0
	ldr	r0, [r6, #252]
	bl	FSP_GetLogicFs
	mvn	r3, r7
	mov	r3, r3, lsr #31
	cmp	r0, #0
	mov	r4, r0
	moveq	r3, #0
	cmp	r3, #0
	beq	.L1263
	add	r1, r5, #2064
	add	r2, r6, #2896
	bl	HEVC_ConvertHDRInfo
	ldr	r3, [r6, #2416]
	ldr	r3, [r3, #28]
	cmp	r3, #25
	beq	.L1272
.L1264:
	ldr	r5, .L1273
	add	r1, r4, #40
	ldr	r0, [r6, #3580]
	mov	r2, #640
	ldr	r3, [r5, #52]
	add	r0, r0, #80
	blx	r3
	ldr	r1, [r6, #3580]
	ldr	r3, [r5, #52]
	mov	r0, r9
	add	r1, r1, #80
	mov	r2, #640
	blx	r3
	ldr	r3, [r6, #3580]
	mov	r0, #0
	str	r7, [r3, #28]
	ldrsb	r3, [r4, #4]
	str	r3, [r6, #3556]
	ldmfd	sp, {r4, r5, r6, r7, r8, r9, fp, sp, pc}
.L1257:
	add	lr, lr, #1
	add	r0, r0, #720
	cmp	lr, #20
	bne	.L1261
.L1265:
	ldr	r1, .L1273+4
	mov	r0, #0
	bl	dprint_vfmw
	mvn	r0, #0
	ldmfd	sp, {r4, r5, r6, r7, r8, r9, fp, sp, pc}
.L1272:
	ldr	r1, [r6, #2400]
	ldr	r5, [r4, #152]
	ldr	r3, [r4, #76]
	ldr	r2, [r1, #68]
	ldr	r1, [r1, #64]
	str	r8, [r4, #280]
	mul	r5, r5, r2
	str	r2, [r4, #112]
	str	r1, [r4, #108]
	str	r8, [r4, #284]
	add	r3, r5, r3
	str	r8, [r4, #288]
	str	r3, [r4, #80]
	mov	r0, r3
	str	r8, [r4, #292]
	str	r8, [r4, #296]
	bl	MEM_Phy2Vir
	ldr	r2, [r4, #60]
	ldr	r3, [r4, #156]
	add	r5, r5, r2
	str	r8, [r4, #556]
	str	r5, [r4, #64]
	add	r5, r5, r3
	str	r5, [r4, #72]
	str	r0, [r4, #552]
	b	.L1264
.L1263:
	strb	r3, [r6, #3521]
	mov	r0, r3
	ldr	r1, .L1273+8
	bl	dprint_vfmw
	mvn	r0, #0
	ldmfd	sp, {r4, r5, r6, r7, r8, r9, fp, sp, pc}
.L1274:
	.align	2
.L1273:
	.word	vfmw_Osal_Func_Ptr_S
	.word	.LC128
	.word	.LC129
	UNWIND(.fnend)
	.size	HEVC_AllocFrameStore, .-HEVC_AllocFrameStore
	.align	2
	.global	HEVC_IsVoFinish
	.type	HEVC_IsVoFinish, %function
HEVC_IsVoFinish:
	UNWIND(.fnstart)
	@ args = 0, pretend = 0, frame = 0
	@ frame_needed = 1, uses_anonymous_args = 0
	UNWIND(.movsp ip)
	mov	ip, sp
	stmfd	sp!, {r4, r5, fp, ip, lr, pc}
	UNWIND(.pad #4)
	UNWIND(.save {r4, r5, fp, ip, lr})
	UNWIND(.setfp fp, ip, #-4)
	sub	fp, ip, #4
	mov	r5, r0
	ldr	r0, [r0, #252]
	bl	FSP_GetFspType
	cmn	r0, #1
	mov	r4, r0
	movne	r4, #0
	bne	.L1279
	b	.L1282
.L1278:
	ldrsb	r3, [r0, #1]
	cmp	r3, #3
	beq	.L1280
	cmp	r4, #32
	beq	.L1283
.L1279:
	mov	r1, r4
	ldr	r0, [r5, #252]
	bl	FSP_GetLogicFs
	add	r4, r4, #1
	cmp	r0, #0
	bne	.L1278
	ldr	r1, .L1284
	mov	r0, #1
	bl	dprint_vfmw
	mvn	r0, #0
	ldmfd	sp, {r4, r5, fp, sp, pc}
.L1282:
	ldr	r1, .L1284+4
	mov	r0, #1
	bl	dprint_vfmw
	mov	r0, r4
	ldmfd	sp, {r4, r5, fp, sp, pc}
.L1280:
	mov	r0, #0
	ldmfd	sp, {r4, r5, fp, sp, pc}
.L1283:
	mov	r0, #1
	ldmfd	sp, {r4, r5, fp, sp, pc}
.L1285:
	.align	2
.L1284:
	.word	.LC131
	.word	.LC130
	UNWIND(.fnend)
	.size	HEVC_IsVoFinish, .-HEVC_IsVoFinish
	.align	2
	.global	HEVC_GetBackPicFromVOQueue
	.type	HEVC_GetBackPicFromVOQueue, %function
HEVC_GetBackPicFromVOQueue:
	UNWIND(.fnstart)
	@ args = 0, pretend = 0, frame = 0
	@ frame_needed = 1, uses_anonymous_args = 0
	UNWIND(.movsp ip)
	mov	ip, sp
	stmfd	sp!, {r4, r5, r6, r7, r8, r9, fp, ip, lr, pc}
	UNWIND(.pad #4)
	UNWIND(.save {r4, r5, r6, r7, r8, r9, fp, ip, lr})
	UNWIND(.setfp fp, ip, #-4)
	sub	fp, ip, #4
	mov	r8, r0
	add	r0, r0, #5568
	add	r0, r0, #16
	add	r5, r8, #13376
	bl	ResetVoQueue
	add	r9, r8, #27648
	add	r5, r5, #16
	add	r9, r9, #144
	mov	r6, #0
	mov	r7, #0
.L1289:
	sub	r4, r5, #32
	mov	r3, #0
	strb	r3, [r5, #-647]
	str	r3, [r5, #-600]
.L1288:
	ldr	r1, [r4, #8]!
	cmp	r1, #0
	beq	.L1287
	ldr	r0, [r8, #252]
	bl	FreeUsdByDec
	strd	r6, [r4]
.L1287:
	cmp	r4, r5
	bne	.L1288
	add	r5, r4, #720
	cmp	r5, r9
	bne	.L1289
	ldr	r2, [r8, #184]
	cmp	r2, #0
	ldmeqfd	sp, {r4, r5, r6, r7, r8, r9, fp, sp, pc}
	add	r8, r8, #2128
	mov	r3, #0
	add	r8, r8, #12
	mov	r1, r3
.L1291:
	add	r3, r3, #1
	str	r1, [r8, #4]!
	cmp	r3, r2
	bne	.L1291
	ldmfd	sp, {r4, r5, r6, r7, r8, r9, fp, sp, pc}
	UNWIND(.fnend)
	.size	HEVC_GetBackPicFromVOQueue, .-HEVC_GetBackPicFromVOQueue
	.align	2
	.global	HEVC_RemoveFrameStoreOutDPB
	.type	HEVC_RemoveFrameStoreOutDPB, %function
HEVC_RemoveFrameStoreOutDPB:
	UNWIND(.fnstart)
	@ args = 0, pretend = 0, frame = 0
	@ frame_needed = 1, uses_anonymous_args = 0
	UNWIND(.movsp ip)
	mov	ip, sp
	stmfd	sp!, {r4, r5, r6, r7, fp, ip, lr, pc}
	UNWIND(.pad #4)
	UNWIND(.save {r4, r5, r6, r7, fp, ip, lr})
	UNWIND(.setfp fp, ip, #-4)
	sub	fp, ip, #4
	add	r6, r0, r1, lsl #2
	mov	r7, #0
	mov	r4, r1
	mov	r5, r0
	ldr	r3, [r6, #2620]
	str	r7, [r3, #48]
	ldr	r3, [r6, #2620]
	ldr	r0, [r0, #252]
	ldr	r1, [r3, #28]
	bl	FSP_GetLogicFs
	cmp	r0, #0
	beq	.L1300
	ldrsb	r3, [r0, #1]
	cmp	r3, #3
	beq	.L1301
	ldr	r3, [r6, #2620]
	mov	r2, r7
	ldr	r0, [r5, #252]
	ldr	r1, [r3, #28]
	bl	FSP_SetDisplay
.L1301:
	ldr	r3, [r6, #2620]
	mov	r2, #0
	ldr	r0, [r5, #252]
	ldr	r1, [r3, #28]
	bl	FSP_SetRef
.L1300:
	ldr	r1, [r5, #2600]
	sub	r1, r1, #1
	cmp	r4, r1
	addls	r3, r4, #652
	addls	r3, r3, #3
	addls	r3, r5, r3, lsl #2
	bhi	.L1304
.L1303:
	add	r4, r4, #1
	ldr	r2, [r3, #4]!
	cmp	r4, r1
	str	r2, [r3, #-4]
	bls	.L1303
.L1304:
	add	r3, r1, #652
	mov	r2, #0
	add	r3, r3, #2
	add	r3, r5, r3, lsl #2
	str	r2, [r3, #4]
	str	r1, [r5, #2600]
	ldmfd	sp, {r4, r5, r6, r7, fp, sp, pc}
	UNWIND(.fnend)
	.size	HEVC_RemoveFrameStoreOutDPB, .-HEVC_RemoveFrameStoreOutDPB
	.align	2
	.global	HEVC_RemoveDummyFrame
	.type	HEVC_RemoveDummyFrame, %function
HEVC_RemoveDummyFrame:
	UNWIND(.fnstart)
	@ args = 0, pretend = 0, frame = 0
	@ frame_needed = 1, uses_anonymous_args = 0
	UNWIND(.movsp ip)
	mov	ip, sp
	stmfd	sp!, {r4, r5, r6, r7, fp, ip, lr, pc}
	UNWIND(.pad #4)
	UNWIND(.save {r4, r5, r6, r7, fp, ip, lr})
	UNWIND(.setfp fp, ip, #-4)
	sub	fp, ip, #4
	ldr	r1, [r0, #2600]
	mov	r5, r0
	cmp	r1, #0
	ldmeqfd	sp, {r4, r5, r6, r7, fp, sp, pc}
	mov	r6, #0
	mov	r4, r6
	mov	r7, r6
	b	.L1316
.L1315:
	add	r4, r4, #1
	cmp	r4, r1
	mov	r6, r4
	bcs	.L1322
.L1316:
	add	r3, r5, r4, lsl #2
	ldr	r3, [r3, #2620]
	ldrb	r2, [r3]	@ zero_extendqisi2
	cmp	r2, #0
	beq	.L1315
	mov	r1, r6
	strb	r7, [r3]
	mov	r0, r5
	sub	r4, r4, #1
	bl	HEVC_RemoveApcStore
	mov	r1, r6
	mov	r0, r5
	add	r4, r4, #1
	bl	HEVC_RemoveFrameStoreOutDPB
	ldr	r1, [r5, #2600]
	mov	r6, r4
	cmp	r4, r1
	bcc	.L1316
.L1322:
	ldmfd	sp, {r4, r5, r6, r7, fp, sp, pc}
	UNWIND(.fnend)
	.size	HEVC_RemoveDummyFrame, .-HEVC_RemoveDummyFrame
	.align	2
	.global	HEVC_RemoveUnUsedFrameStore
	.type	HEVC_RemoveUnUsedFrameStore, %function
HEVC_RemoveUnUsedFrameStore:
	UNWIND(.fnstart)
	@ args = 0, pretend = 0, frame = 0
	@ frame_needed = 1, uses_anonymous_args = 0
	UNWIND(.movsp ip)
	mov	ip, sp
	stmfd	sp!, {r3, r4, r5, r6, r7, r8, r9, r10, fp, ip, lr, pc}
	UNWIND(.pad #4)
	UNWIND(.save {r3, r4, r5, r6, r7, r8, r9, r10, fp, ip, lr})
	UNWIND(.setfp fp, ip, #-4)
	sub	fp, ip, #4
	ldr	r5, [r0, #2600]
	mov	r10, r0
	cmp	r5, #0
	beq	.L1332
	mov	r6, #0
	mvn	r8, #0
	mov	r9, r6
	mov	r4, r6
	b	.L1331
.L1342:
	ldrsb	r2, [r0, #1]
	cmp	r2, #0
	cmpne	r2, #3
	ldr	r2, [r7, #2620]
	bne	.L1327
	ldr	r0, [r2, #52]
	cmp	r0, #1
	beq	.L1327
	str	r8, [r2, #28]
	mov	r3, #1
	ldr	r2, [r7, #2620]
	strb	r1, [r2, #1]
	ldr	r2, [r7, #2620]
	strb	r3, [r2, #2]
	ldr	r2, [r7, #2620]
.L1327:
	ldr	r3, [r2]
	bic	r3, r3, #-16777216
	bic	r3, r3, #255
	cmp	r3, #65536
	addne	r9, r9, #1
	beq	.L1341
	add	r4, r4, #1
	cmp	r4, r5
	beq	.L1324
.L1331:
	add	r7, r10, r9, lsl #2
	ldr	r0, [r10, #252]
	ldr	r2, [r7, #2620]
	ldr	r1, [r2, #28]
	bl	FSP_GetLogicFs
	cmp	r0, #0
	beq	.L1325
	ldrsb	r1, [r0]
	cmp	r1, #0
	beq	.L1342
	ldr	r2, [r7, #2620]
	b	.L1327
.L1325:
	ldr	r2, [r7, #2620]
	ldr	r1, [r2, #52]
	cmp	r1, #1
	beq	.L1327
	str	r8, [r2, #28]
	mov	r3, #1
	ldr	r2, [r7, #2620]
	strb	r0, [r2, #1]
	ldr	r2, [r7, #2620]
	strb	r3, [r2, #2]
	ldr	r2, [r7, #2620]
	b	.L1327
.L1341:
	mov	r1, r9
	mov	r0, r10
	add	r4, r4, #1
	bl	HEVC_RemoveFrameStoreOutDPB
	cmp	r4, r5
	mov	r6, #1
	bne	.L1331
.L1324:
	mov	r0, r6
	ldmfd	sp, {r3, r4, r5, r6, r7, r8, r9, r10, fp, sp, pc}
.L1332:
	mov	r6, r5
	b	.L1324
	UNWIND(.fnend)
	.size	HEVC_RemoveUnUsedFrameStore, .-HEVC_RemoveUnUsedFrameStore
	.align	2
	.global	HEVC_SimpleSlideDPB
	.type	HEVC_SimpleSlideDPB, %function
HEVC_SimpleSlideDPB:
	UNWIND(.fnstart)
	@ args = 0, pretend = 0, frame = 0
	@ frame_needed = 1, uses_anonymous_args = 0
	UNWIND(.movsp ip)
	mov	ip, sp
	stmfd	sp!, {r4, r5, fp, ip, lr, pc}
	UNWIND(.pad #4)
	UNWIND(.save {r4, r5, fp, ip, lr})
	UNWIND(.setfp fp, ip, #-4)
	sub	fp, ip, #4
	add	r3, r0, #12288
	mov	r4, r0
	ldr	r2, [r3, #260]
	ldr	r3, [r3, #256]
	cmp	r2, r3
	bcs	.L1347
	ldr	r3, [r0, #2596]
	ldr	r2, [r0, #2600]
	cmp	r2, r3
	ldmccfd	sp, {r4, r5, fp, sp, pc}
	cmp	r3, #15
	bls	.L1349
.L1347:
	ldr	r3, [r4, #2620]
	mov	r5, #0
	mov	r2, r5
	strb	r5, [r3, #1]
	ldr	r1, [r3, #28]
	ldr	r0, [r4, #252]
	bl	FSP_SetRef
	mov	r1, r5
	mov	r0, r4
	bl	HEVC_RemoveApcStore
	mov	r1, r5
	mov	r0, r4
	sub	sp, fp, #20
	ldmfd	sp, {r4, r5, fp, sp, lr}
	b	HEVC_RemoveFrameStoreOutDPB
.L1349:
	bl	HEVC_IncreaseDPBSize
	cmp	r0, #0
	bne	.L1347
	ldmfd	sp, {r4, r5, fp, sp, pc}
	UNWIND(.fnend)
	.size	HEVC_SimpleSlideDPB, .-HEVC_SimpleSlideDPB
	.align	2
	.global	HEVC_GetMinPOC
	.type	HEVC_GetMinPOC, %function
HEVC_GetMinPOC:
	UNWIND(.fnstart)
	@ args = 0, pretend = 0, frame = 0
	@ frame_needed = 1, uses_anonymous_args = 0
	UNWIND(.movsp ip)
	mov	ip, sp
	stmfd	sp!, {r4, r5, r6, r7, fp, ip, lr, pc}
	UNWIND(.pad #4)
	UNWIND(.save {r4, r5, r6, r7, fp, ip, lr})
	UNWIND(.setfp fp, ip, #-4)
	sub	fp, ip, #4
	mov	r6, r2
	mvn	r3, #-2147483648
	mov	r2, #0
	str	r2, [r6]
	str	r3, [r1]
	mov	r4, r1
	ldr	r2, [r0, #2600]
	mov	r5, r0
	ldr	r3, [r0, #2596]
	cmp	r2, r3
	bhi	.L1357
	cmp	r2, #0
	ldmeqfd	sp, {r4, r5, r6, r7, fp, sp, pc}
.L1358:
	add	r1, r5, #2608
	mov	r3, #0
	add	r1, r1, #8
.L1354:
	ldr	r2, [r1, #4]!
	ldr	r0, [r4]
	ldr	r2, [r2, #8]
	cmp	r0, r2
	strgt	r2, [r4]
	strgt	r3, [r6]
	add	r3, r3, #1
	ldr	r2, [r5, #2600]
	cmp	r2, r3
	bhi	.L1354
	ldmfd	sp, {r4, r5, r6, r7, fp, sp, pc}
.L1357:
	ldr	r1, .L1359
	mov	r0, #1
	bl	dprint_vfmw
	ldr	r2, [r5, #2596]
	cmp	r2, #0
	str	r2, [r5, #2600]
	bne	.L1358
	ldmfd	sp, {r4, r5, r6, r7, fp, sp, pc}
.L1360:
	.align	2
.L1359:
	.word	.LC132
	UNWIND(.fnend)
	.size	HEVC_GetMinPOC, .-HEVC_GetMinPOC
	.align	2
	.global	HEVC_GetReRangeFlag
	.type	HEVC_GetReRangeFlag, %function
HEVC_GetReRangeFlag:
	UNWIND(.fnstart)
	@ args = 4, pretend = 0, frame = 0
	@ frame_needed = 1, uses_anonymous_args = 0
	UNWIND(.movsp ip)
	mov	ip, sp
	stmfd	sp!, {r4, r5, fp, ip, lr, pc}
	UNWIND(.pad #4)
	UNWIND(.save {r4, r5, fp, ip, lr})
	UNWIND(.setfp fp, ip, #-4)
	sub	fp, ip, #4
	add	r3, r0, #4096
	ldr	lr, [r0, #2380]
	mov	r5, #1888
	movw	r4, #12660
	ldr	ip, [r3, #164]
	ldr	r3, [r0, #2376]
	mla	ip, r5, ip, lr
	ldr	lr, [fp, #4]
	ldr	ip, [ip, #32]
	mla	r3, r4, ip, r3
	ldr	ip, [r3, #64]
	ldr	r3, [r3, #68]
	cmp	r1, ip
	cmpeq	lr, #0
	bne	.L1365
	cmp	r2, r3
	beq	.L1366
.L1365:
	mov	r0, #1
	ldmfd	sp, {r4, r5, fp, sp, pc}
.L1366:
	ldr	r3, [r0, #172]
	cmp	r3, #0
	beq	.L1365
	ldr	r3, [r0, #2416]
	ldr	r0, [r3, #968]
	adds	r0, r0, #0
	movne	r0, #1
	ldmfd	sp, {r4, r5, fp, sp, pc}
	UNWIND(.fnend)
	.size	HEVC_GetReRangeFlag, .-HEVC_GetReRangeFlag
	.align	2
	.global	HEVC_CalcStreamBits
	.type	HEVC_CalcStreamBits, %function
HEVC_CalcStreamBits:
	UNWIND(.fnstart)
	@ args = 0, pretend = 0, frame = 0
	@ frame_needed = 1, uses_anonymous_args = 0
	UNWIND(.movsp ip)
	mov	ip, sp
	stmfd	sp!, {r4, fp, ip, lr, pc}
	UNWIND(.pad #4)
	UNWIND(.save {r4, fp, ip, lr})
	UNWIND(.setfp fp, ip, #-4)
	sub	fp, ip, #4
	ldr	r4, [r0, #2388]
	ldrb	ip, [r4]	@ zero_extendqisi2
	cmp	ip, #0
	beq	.L1378
	mov	r3, #0
	mov	r2, r4
	mov	lr, r3
.L1369:
	add	r3, r3, #1
	ldr	r1, [r2, #44]
	cmp	r3, ip
	add	r2, r2, #28
	add	lr, lr, r1
	bne	.L1369
.L1368:
	ldr	r2, [r0, #2368]
	mov	r3, ip, asl #5
	sub	ip, r3, ip, asl #2
	add	r4, r4, ip
	ldr	r3, [r2, #24]
	and	r3, r3, #7
	str	r3, [r4, #56]
	ldr	r2, [r0, #2388]
	ldr	r3, [r0, #2368]
	ldrb	r1, [r2]	@ zero_extendqisi2
	ldr	ip, [r3, #24]
	mov	r3, r1, asl #5
	sub	r3, r3, r1, asl #2
	add	r3, r2, r3
	ldr	r2, [r3, #48]
	add	r2, r2, ip, lsr #3
	rsb	r2, lr, r2
	str	r2, [r3, #60]
	ldr	r1, [r0, #2388]
	ldr	r3, [r0, #2368]
	ldrb	r2, [r1]	@ zero_extendqisi2
	ldr	ip, [r3, #24]
	mov	r3, r2, asl #5
	sub	r2, r3, r2, asl #2
	add	r2, r1, r2
	ldr	r3, [r2, #44]
	add	r3, lr, r3
	rsb	r3, ip, r3, lsl #3
	str	r3, [r2, #52]
	ldr	r2, [r0, #2388]
	ldrb	r1, [r2]	@ zero_extendqisi2
	mov	r3, r1, asl #5
	sub	r3, r3, r1, asl #2
	add	r3, r2, r3
	ldr	r2, [r3, #60]
	ldr	r1, [r3, #56]
	and	r2, r2, #3
	add	r2, r1, r2, lsl #3
	str	r2, [r3, #56]
	ldr	r2, [r0, #2388]
	ldrb	r1, [r2]	@ zero_extendqisi2
	mov	r3, r1, asl #5
	sub	r3, r3, r1, asl #2
	add	r3, r2, r3
	ldr	r2, [r3, #60]
	bic	r2, r2, #3
	str	r2, [r3, #60]
	ldr	r1, [r0, #2388]
	ldr	r2, [r1, #8]
	sub	r3, r2, #1
	cmp	r3, #1
	bhi	.L1385
	ldrb	ip, [r1]	@ zero_extendqisi2
	add	lr, ip, #1
	cmp	r2, lr
	movhi	r2, #1
	movls	r2, #0
	cmp	lr, #1
	movhi	r2, #0
	cmp	r2, #0
	beq	.L1371
	add	ip, ip, #2
	mov	lr, #0
.L1372:
	sub	r3, ip, #1
	mov	r2, r3, asl #5
	sub	r3, r2, r3, asl #2
	add	r1, r1, r3
	str	lr, [r1, #56]
	ldr	r2, [r0, #2388]
	add	r2, r2, r3
	ldr	r1, [r2, #48]
	str	r1, [r2, #60]
	ldr	r2, [r0, #2388]
	add	r2, r2, r3
	ldr	r1, [r2, #44]
	mov	r1, r1, asl #3
	str	r1, [r2, #52]
	ldr	r2, [r0, #2388]
	add	r2, r2, r3
	ldr	r1, [r2, #60]
	ldr	r4, [r2, #56]
	and	r1, r1, #15
	add	r1, r4, r1, lsl #3
	str	r1, [r2, #56]
	ldr	r2, [r0, #2388]
	add	r3, r2, r3
	ldr	r2, [r3, #60]
	bic	r2, r2, #15
	str	r2, [r3, #60]
	ldr	r1, [r0, #2388]
	ldr	r3, [r1, #8]
	cmp	ip, #1
	cmpls	ip, r3
	add	ip, ip, #1
	movcc	r2, #1
	movcs	r2, #0
	cmp	r2, #0
	bne	.L1372
	sub	r3, r3, #1
.L1371:
	mov	r2, r3, asl #5
	ldr	ip, [r1, #12]
	sub	r3, r2, r3, asl #2
	add	r1, r1, r3
	ldr	r3, [r1, #52]
	rsb	r3, ip, r3
	str	r3, [r1, #52]
	ldr	r4, [r0, #2388]
	ldrb	r2, [r4]	@ zero_extendqisi2
	ldr	lr, [r4, #8]
	cmp	r2, lr
	ldmcsfd	sp, {r4, fp, sp, pc}
	sxth	r1, r2
	mov	r3, r1, asl #5
	sub	r3, r3, r1, asl #2
	add	r3, r4, r3
.L1376:
	ldr	r1, [r3, #60]
	add	r2, r2, #1
	ldr	ip, [r0, #3552]
	add	r3, r3, #28
	cmp	r1, ip
	strcc	r1, [r0, #3552]
	ldrcc	lr, [r4, #8]
	cmp	lr, r2
	bhi	.L1376
	ldmfd	sp, {r4, fp, sp, pc}
.L1385:
	ldr	r1, .L1386
	mov	r0, #0
	sub	sp, fp, #16
	ldmia	sp, {r4, fp, sp, lr}
	b	dprint_vfmw
.L1378:
	mov	lr, ip
	b	.L1368
.L1387:
	.align	2
.L1386:
	.word	.LC133
	UNWIND(.fnend)
	.size	HEVC_CalcStreamBits, .-HEVC_CalcStreamBits
	.align	2
	.global	HEVC_VpsSpsPpsCheck
	.type	HEVC_VpsSpsPpsCheck, %function
HEVC_VpsSpsPpsCheck:
	UNWIND(.fnstart)
	@ args = 0, pretend = 0, frame = 0
	@ frame_needed = 1, uses_anonymous_args = 0
	UNWIND(.movsp ip)
	mov	ip, sp
	stmfd	sp!, {fp, ip, lr, pc}
	UNWIND(.pad #4)
	UNWIND(.save {fp, ip, lr})
	UNWIND(.setfp fp, ip, #-4)
	sub	fp, ip, #4
	add	r2, r0, #4096
	ldr	r3, [r0, #164]
	ldr	r2, [r2, #164]
	cmp	r2, r3
	bge	.L1396
	mov	r3, #1888
	ldr	r1, [r0, #2380]
	mul	r3, r3, r2
	add	ip, r1, r3
	ldrb	r3, [r1, r3]	@ zero_extendqisi2
	cmp	r3, #0
	beq	.L1397
	ldr	r2, [ip, #32]
	ldr	r3, [r0, #160]
	cmp	r2, r3
	bge	.L1398
	ldr	r1, [r0, #2376]
	movw	r3, #12660
	mla	r3, r3, r2, r1
	ldrb	r1, [r3, #1]	@ zero_extendqisi2
	cmp	r1, #0
	beq	.L1399
	ldr	r2, [r3, #48]
	ldr	r3, [r0, #156]
	cmp	r2, r3
	bcs	.L1400
	ldr	r1, [r0, #2372]
	mov	r3, r2, asl #7
	add	r3, r3, r2, lsl #2
	ldrb	r3, [r1, r3]	@ zero_extendqisi2
	cmp	r3, #0
	beq	.L1401
	mov	r0, #0
	ldmfd	sp, {fp, sp, pc}
.L1396:
	ldr	r1, .L1402
	mov	r0, #1
	bl	dprint_vfmw
	mvn	r0, #0
	ldmfd	sp, {fp, sp, pc}
.L1397:
	ldr	r1, .L1402+4
	mov	r0, #1
	bl	dprint_vfmw
	mvn	r0, #0
	ldmfd	sp, {fp, sp, pc}
.L1398:
	ldr	r1, .L1402+8
	mov	r0, #1
	bl	dprint_vfmw
	mvn	r0, #0
	ldmfd	sp, {fp, sp, pc}
.L1399:
	ldr	r1, .L1402+12
	mov	r0, #1
	bl	dprint_vfmw
	mvn	r0, #0
	ldmfd	sp, {fp, sp, pc}
.L1400:
	ldr	r1, .L1402+16
	mov	r0, #1
	bl	dprint_vfmw
	mvn	r0, #0
	ldmfd	sp, {fp, sp, pc}
.L1401:
	ldr	r1, .L1402+20
	mov	r0, #1
	bl	dprint_vfmw
	mvn	r0, #0
	ldmfd	sp, {fp, sp, pc}
.L1403:
	.align	2
.L1402:
	.word	.LC134
	.word	.LC135
	.word	.LC136
	.word	.LC137
	.word	.LC138
	.word	.LC139
	UNWIND(.fnend)
	.size	HEVC_VpsSpsPpsCheck, .-HEVC_VpsSpsPpsCheck
	.align	2
	.global	HEVC_IsNewPic
	.type	HEVC_IsNewPic, %function
HEVC_IsNewPic:
	UNWIND(.fnstart)
	@ args = 0, pretend = 0, frame = 0
	@ frame_needed = 1, uses_anonymous_args = 0
	UNWIND(.movsp ip)
	mov	ip, sp
	stmfd	sp!, {r4, r5, r6, r7, fp, ip, lr, pc}
	UNWIND(.pad #4)
	UNWIND(.save {r4, r5, r6, r7, fp, ip, lr})
	UNWIND(.setfp fp, ip, #-4)
	sub	fp, ip, #4
	UNWIND(.pad #16)
	sub	sp, sp, #16
	add	r1, r0, #4096
	ldr	lr, [r0, #2388]
	ldr	r3, [r1, #160]
	ldr	r2, [lr, #16]
	add	r4, r0, r3, lsl #2
	ldr	ip, [r4, #228]
	cmn	ip, #-2147483647
	beq	.L1445
	sub	r5, r2, #16
	cmp	r2, #21
	cmpne	r5, #2
	bls	.L1442
.L1421:
	cmp	r2, #1
	bls	.L1446
.L1409:
	sub	r2, r2, #19
	cmp	r2, #1
	movls	ip, #-2147483647
	strls	ip, [r4, #228]
.L1442:
	ldr	r2, [r1, #140]
.L1411:
	cmp	ip, r2
	ble	.L1412
	ldr	r5, [lr, #16]
	sub	r6, r5, #8
	cmp	r6, #1
	addhi	r3, r0, r3
	bls	.L1447
.L1414:
	ldrb	ip, [r3, #10]	@ zero_extendqisi2
	cmp	ip, #0
	beq	.L1415
	ldr	r5, [r4, #232]
	cmp	r5, r2
	ble	.L1415
	ldr	r6, [lr, #16]
	sub	r7, r6, #8
	cmp	r7, #1
	bls	.L1448
.L1415:
	ldrb	ip, [r1, #129]	@ zero_extendqisi2
	cmp	ip, #0
	bne	.L1416
	ldr	lr, [lr, #16]
	sub	r5, lr, #19
	cmp	r5, #1
	bls	.L1443
	cmp	lr, #21
	beq	.L1443
	sub	lr, lr, #16
	cmp	lr, #2
	strls	r2, [r4, #232]
	movls	ip, #1
	strlsb	ip, [r3, #10]
.L1416:
	ldr	ip, [r0, #236]
	ldrb	r3, [r1, #128]	@ zero_extendqisi2
	cmp	ip, #0
	ldr	r1, [r1, #164]
	beq	.L1420
	ldr	ip, [r0, #208]
	cmp	r1, ip
	movne	r3, #1
.L1420:
	ldr	ip, [r0, #304]
	cmp	ip, r1
	movne	r0, #1
	beq	.L1449
.L1441:
	sub	sp, fp, #28
	ldmfd	sp, {r4, r5, r6, r7, fp, sp, pc}
.L1446:
	ldr	r5, [r1, #148]
	cmp	r5, #2
	bne	.L1409
	cmn	ip, #-2147483647
	bne	.L1442
.L1410:
	ldr	r2, [r1, #140]
	str	r2, [r4, #228]
	ldr	ip, [lr, #16]
	cmp	ip, #1
	bls	.L1450
.L1412:
	add	r3, r0, r3
	ldrb	ip, [r3, #5]	@ zero_extendqisi2
	cmp	ip, #0
	beq	.L1414
	ldr	r5, [lr, #16]
	sub	r6, r5, #8
	cmp	r6, #1
	bhi	.L1414
	str	r2, [sp]
	movw	r3, #13102
	str	r5, [sp, #8]
	mov	r0, #1
	str	ip, [sp, #4]
	ldr	r2, .L1451
	ldr	r1, .L1451+4
	bl	dprint_vfmw
	mov	r0, #2
	b	.L1441
.L1445:
	sub	r6, r2, #16
	cmp	r6, #5
	movhi	r7, #0
	movls	r7, #1
	cmp	r2, #1
	ldrls	r5, [r1, #148]
	movhi	r5, #0
	subls	r5, r5, #2
	clzls	r5, r5
	movls	r5, r5, lsr #5
	orrs	r5, r5, r7
	moveq	r0, #2
	beq	.L1441
	cmp	r2, #21
	cmpne	r6, #2
	bhi	.L1421
	b	.L1410
.L1449:
	ldr	r0, [r0, #260]
	cmp	r0, r2
	moveq	r0, r3
	movne	r0, #1
	sub	sp, fp, #28
	ldmfd	sp, {r4, r5, r6, r7, fp, sp, pc}
.L1447:
	str	r2, [sp]
	movw	r3, #13095
	str	r5, [sp, #8]
	mov	r0, #1
	str	ip, [sp, #4]
	ldr	r2, .L1451
	ldr	r1, .L1451+8
	bl	dprint_vfmw
	mov	r0, #2
	b	.L1441
.L1443:
	str	r2, [r4, #232]
	strb	ip, [r3, #10]
	b	.L1416
.L1450:
	mov	ip, #1
	str	ip, [r0, #332]
	ldr	ip, [r4, #228]
	b	.L1411
.L1448:
	str	r2, [sp, #4]
	movw	r3, #13111
	str	r6, [sp, #12]
	mov	r0, #1
	str	r5, [sp, #8]
	str	ip, [sp]
	ldr	r2, .L1451
	ldr	r1, .L1451+12
	bl	dprint_vfmw
	mov	r0, #2
	b	.L1441
.L1452:
	.align	2
.L1451:
	.word	.LANCHOR0+380
	.word	.LC141
	.word	.LC140
	.word	.LC142
	UNWIND(.fnend)
	.size	HEVC_IsNewPic, .-HEVC_IsNewPic
	.align	2
	.global	HEVC_ReadByteAlignment
	.type	HEVC_ReadByteAlignment, %function
HEVC_ReadByteAlignment:
	UNWIND(.fnstart)
	@ args = 0, pretend = 0, frame = 0
	@ frame_needed = 1, uses_anonymous_args = 0
	UNWIND(.movsp ip)
	mov	ip, sp
	stmfd	sp!, {r4, r5, fp, ip, lr, pc}
	UNWIND(.pad #4)
	UNWIND(.save {r4, r5, fp, ip, lr})
	UNWIND(.setfp fp, ip, #-4)
	sub	fp, ip, #4
	mov	r1, #1
	mov	r4, r0
	ldr	r0, [r0, #2368]
	bl	BsGet
	cmp	r0, #0
	beq	.L1458
	ldr	r0, [r4, #2368]
	bl	BsBitsToNextByte
	subs	r1, r0, #0
	beq	.L1457
	ldr	r0, [r4, #2368]
	bl	BsGet
	ldr	r1, .L1459
	mov	r2, r0
	mov	r0, #19
	bl	dprint_vfmw
.L1457:
	mov	r0, #0
	ldmfd	sp, {r4, r5, fp, sp, pc}
.L1458:
	ldr	r1, .L1459+4
	mov	r0, #1
	bl	dprint_vfmw
	mvn	r0, #0
	ldmfd	sp, {r4, r5, fp, sp, pc}
.L1460:
	.align	2
.L1459:
	.word	.LC144
	.word	.LC143
	UNWIND(.fnend)
	.size	HEVC_ReadByteAlignment, .-HEVC_ReadByteAlignment
	.align	2
	.global	HEVC_GetRapPicFlag
	.type	HEVC_GetRapPicFlag, %function
HEVC_GetRapPicFlag:
	UNWIND(.fnstart)
	@ args = 0, pretend = 0, frame = 0
	@ frame_needed = 1, uses_anonymous_args = 0
	UNWIND(.movsp ip)
	mov	ip, sp
	stmfd	sp!, {fp, ip, lr, pc}
	UNWIND(.pad #4)
	UNWIND(.save {fp, ip, lr})
	UNWIND(.setfp fp, ip, #-4)
	sub	fp, ip, #4
	add	r0, r0, #4096
	ldr	r0, [r0, #156]
	sub	r0, r0, #16
	cmp	r0, #5
	movhi	r0, #0
	movls	r0, #1
	ldmfd	sp, {fp, sp, pc}
	UNWIND(.fnend)
	.size	HEVC_GetRapPicFlag, .-HEVC_GetRapPicFlag
	.align	2
	.global	HEVC_GetIdrPicFlag
	.type	HEVC_GetIdrPicFlag, %function
HEVC_GetIdrPicFlag:
	UNWIND(.fnstart)
	@ args = 0, pretend = 0, frame = 0
	@ frame_needed = 1, uses_anonymous_args = 0
	UNWIND(.movsp ip)
	mov	ip, sp
	stmfd	sp!, {fp, ip, lr, pc}
	UNWIND(.pad #4)
	UNWIND(.save {fp, ip, lr})
	UNWIND(.setfp fp, ip, #-4)
	sub	fp, ip, #4
	add	r0, r0, #4096
	ldr	r0, [r0, #156]
	sub	r0, r0, #19
	cmp	r0, #1
	movhi	r0, #0
	movls	r0, #1
	ldmfd	sp, {fp, sp, pc}
	UNWIND(.fnend)
	.size	HEVC_GetIdrPicFlag, .-HEVC_GetIdrPicFlag
	.align	2
	.global	HEVC_DecPTL
	.type	HEVC_DecPTL, %function
HEVC_DecPTL:
	UNWIND(.fnstart)
	@ args = 0, pretend = 0, frame = 48
	@ frame_needed = 1, uses_anonymous_args = 0
	UNWIND(.movsp ip)
	mov	ip, sp
	stmfd	sp!, {r4, r5, r6, r7, r8, r9, r10, fp, ip, lr, pc}
	UNWIND(.pad #4)
	UNWIND(.save {r4, r5, r6, r7, r8, r9, r10, fp, ip, lr})
	UNWIND(.setfp fp, ip, #-4)
	sub	fp, ip, #4
	UNWIND(.pad #52)
	sub	sp, sp, #52
	subs	r8, r2, #0
	mov	r5, r0
	mov	r9, r1
	mov	r6, r3
	bne	.L1501
.L1464:
	mov	r1, #8
	ldr	r0, [r5, #2368]
	bl	BsGet
	cmp	r6, #0
	str	r0, [r9, #4]
	ble	.L1469
	sub	r9, fp, #84
	sub	r7, fp, #92
	mov	r4, #0
	mov	r10, r9
.L1470:
	mov	r1, #1
	ldr	r0, [r5, #2368]
	bl	BsGet
	mov	r1, #1
	strb	r0, [r10], #1
	ldr	r0, [r5, #2368]
	bl	BsGet
	strb	r0, [r7, r4]
	add	r4, r4, #1
	cmp	r4, #5
	movle	r3, #1
	movgt	r3, #0
	cmp	r6, r4
	movle	r3, #0
	cmp	r3, #0
	bne	.L1470
	cmp	r6, #7
	movle	r4, r6
	ble	.L1474
	b	.L1475
.L1473:
	cmp	r4, #8
	beq	.L1475
.L1474:
	mov	r1, #2
	ldr	r0, [r5, #2368]
	bl	BsGet
	add	r4, r4, #1
	cmp	r0, #0
	beq	.L1473
	ldr	r1, .L1503
	mov	r0, #1
	bl	dprint_vfmw
	mvn	r0, #0
	sub	sp, fp, #40
	ldmfd	sp, {r4, r5, r6, r7, r8, r9, r10, fp, sp, pc}
.L1469:
	mov	r0, #0
	sub	sp, fp, #40
	ldmfd	sp, {r4, r5, r6, r7, r8, r9, r10, fp, sp, pc}
.L1475:
	mov	r10, #0
	b	.L1479
.L1478:
	add	r10, r10, #1
	cmp	r10, #5
	movle	r3, #1
	movgt	r3, #0
	cmp	r6, r10
	movle	r3, #0
	cmp	r3, #0
	beq	.L1469
.L1479:
	cmp	r8, #0
	beq	.L1476
	ldrb	r3, [r9, r10]	@ zero_extendqisi2
	cmp	r3, #0
	bne	.L1502
.L1476:
	ldrb	r3, [r7, r10]	@ zero_extendqisi2
	cmp	r3, #0
	beq	.L1478
	mov	r1, #8
	ldr	r0, [r5, #2368]
	bl	BsGet
	b	.L1478
.L1502:
	mov	r1, #2
	ldr	r0, [r5, #2368]
	bl	BsGet
	mov	r1, #1
	ldr	r0, [r5, #2368]
	mov	r4, #32
	bl	BsGet
	mov	r1, #5
	ldr	r0, [r5, #2368]
	bl	BsGet
.L1477:
	mov	r1, #1
	ldr	r0, [r5, #2368]
	bl	BsGet
	subs	r4, r4, #1
	bne	.L1477
	mov	r1, #1
	ldr	r0, [r5, #2368]
	bl	BsGet
	mov	r1, #1
	ldr	r0, [r5, #2368]
	bl	BsGet
	mov	r1, #1
	ldr	r0, [r5, #2368]
	bl	BsGet
	mov	r1, #1
	ldr	r0, [r5, #2368]
	bl	BsGet
	mov	r1, #16
	ldr	r0, [r5, #2368]
	bl	BsGet
	mov	r1, #16
	ldr	r0, [r5, #2368]
	bl	BsGet
	mov	r1, #12
	ldr	r0, [r5, #2368]
	bl	BsGet
	b	.L1476
.L1501:
	mov	r1, #2
	ldr	r0, [r0, #2368]
	bl	BsGet
	mov	r1, #1
	ldr	r0, [r5, #2368]
	sub	r4, fp, #77
	bl	BsGet
	mov	r1, #5
	ldr	r0, [r5, #2368]
	sub	r7, fp, #45
	bl	BsGet
	mov	r10, r0
.L1465:
	mov	r1, #1
	ldr	r0, [r5, #2368]
	bl	BsGet
	strb	r0, [r4, #1]!
	cmp	r4, r7
	bne	.L1465
	mov	r1, #1
	ldr	r0, [r5, #2368]
	bl	BsGet
	mov	r1, #1
	strb	r0, [r9]
	ldr	r0, [r5, #2368]
	bl	BsGet
	mov	r1, #1
	strb	r0, [r9, #1]
	ldr	r0, [r5, #2368]
	bl	BsGet
	mov	r1, #1
	ldr	r0, [r5, #2368]
	bl	BsGet
	sub	r3, r10, #4
	cmp	r3, #3
	bls	.L1466
	ldrb	r3, [fp, #-72]	@ zero_extendqisi2
	cmp	r3, #0
	bne	.L1466
	ldrb	r3, [fp, #-71]	@ zero_extendqisi2
	cmp	r3, #0
	bne	.L1466
	ldrb	r3, [fp, #-70]	@ zero_extendqisi2
	cmp	r3, #0
	bne	.L1466
	ldrb	r3, [fp, #-69]	@ zero_extendqisi2
	cmp	r3, #0
	bne	.L1466
	mov	r1, #16
	ldr	r0, [r5, #2368]
	bl	BsGet
	mov	r1, #16
	ldr	r0, [r5, #2368]
	bl	BsGet
	mov	r1, #11
	ldr	r0, [r5, #2368]
	bl	BsGet
	b	.L1468
.L1466:
	mov	r1, #1
	ldr	r0, [r5, #2368]
	bl	BsGet
	mov	r1, #1
	ldr	r0, [r5, #2368]
	bl	BsGet
	mov	r1, #1
	ldr	r0, [r5, #2368]
	bl	BsGet
	mov	r1, #1
	ldr	r0, [r5, #2368]
	bl	BsGet
	mov	r1, #1
	ldr	r0, [r5, #2368]
	bl	BsGet
	mov	r1, #1
	ldr	r0, [r5, #2368]
	bl	BsGet
	mov	r1, #1
	ldr	r0, [r5, #2368]
	bl	BsGet
	mov	r1, #1
	ldr	r0, [r5, #2368]
	bl	BsGet
	mov	r1, #1
	ldr	r0, [r5, #2368]
	bl	BsGet
	mov	r1, #16
	ldr	r0, [r5, #2368]
	bl	BsGet
	mov	r1, #16
	ldr	r0, [r5, #2368]
	bl	BsGet
	mov	r1, #2
	ldr	r0, [r5, #2368]
	bl	BsGet
.L1468:
	mov	r1, #1
	ldr	r0, [r5, #2368]
	bl	BsGet
	ldrb	r2, [fp, #-75]	@ zero_extendqisi2
	ldrb	r3, [fp, #-74]	@ zero_extendqisi2
	str	r10, [r5, #308]
	str	r2, [r5, #312]
	str	r3, [r5, #316]
	b	.L1464
.L1504:
	.align	2
.L1503:
	.word	.LC145
	UNWIND(.fnend)
	.size	HEVC_DecPTL, .-HEVC_DecPTL
	.align	2
	.global	HEVC_SetDefaultScalingList
	.type	HEVC_SetDefaultScalingList, %function
HEVC_SetDefaultScalingList:
	UNWIND(.fnstart)
	@ args = 0, pretend = 0, frame = 8
	@ frame_needed = 1, uses_anonymous_args = 0
	UNWIND(.movsp ip)
	mov	ip, sp
	stmfd	sp!, {r4, r5, r6, r7, r8, r9, r10, fp, ip, lr, pc}
	UNWIND(.pad #4)
	UNWIND(.save {r4, r5, r6, r7, r8, r9, r10, fp, ip, lr})
	UNWIND(.setfp fp, ip, #-4)
	sub	fp, ip, #4
	UNWIND(.pad #12)
	sub	sp, sp, #12
	ldr	r9, .L1523
	add	r10, r0, #2208
	add	r3, r0, #2224
	add	r10, r10, #12
	mov	r6, #0
	add	r3, r3, #12
	str	r0, [fp, #-52]
	str	r3, [fp, #-48]
.L1506:
	ldr	r3, [r10, #4]!
	cmp	r3, #0
	beq	.L1514
	ldr	r3, [fp, #-52]
	mov	r8, r6, asl #9
	ldr	r7, [fp, #-48]
	sub	r8, r8, r6, asl #7
	add	r5, r3, #608
	mov	r4, #0
.L1512:
	cmp	r6, #0
	add	r0, r5, r8
	mov	r2, #64
	ldr	r3, [r9, #52]
	beq	.L1521
	cmp	r6, #3
	beq	.L1522
	ldr	ip, .L1523+4
	cmp	r4, #2
	ldr	r1, .L1523+8
	movhi	r1, ip
	blx	r3
.L1508:
	mov	r3, #16
	str	r3, [r7, #4]!
	ldr	r3, [r10]
	add	r4, r4, #1
	add	r5, r5, #64
	cmp	r3, r4
	bhi	.L1512
.L1514:
	add	r6, r6, #1
	ldr	r3, [fp, #-48]
	cmp	r6, #4
	add	r3, r3, #24
	str	r3, [fp, #-48]
	bne	.L1506
	sub	sp, fp, #40
	ldmfd	sp, {r4, r5, r6, r7, r8, r9, r10, fp, sp, pc}
.L1521:
	mov	r2, #16
	ldr	r1, .L1523+12
	mov	r0, r5
	blx	r3
	b	.L1508
.L1522:
	ldr	r0, .L1523+4
	cmp	r4, #0
	ldr	r1, .L1523+8
	mov	r2, #64
	movne	r1, r0
	add	r0, r5, #1152
	blx	r3
	b	.L1508
.L1524:
	.align	2
.L1523:
	.word	vfmw_Osal_Func_Ptr_S
	.word	.LANCHOR0+396
	.word	.LANCHOR2
	.word	.LANCHOR0+460
	UNWIND(.fnend)
	.size	HEVC_SetDefaultScalingList, .-HEVC_SetDefaultScalingList
	.align	2
	.global	HEVC_CalScalingList
	.type	HEVC_CalScalingList, %function
HEVC_CalScalingList:
	UNWIND(.fnstart)
	@ args = 0, pretend = 0, frame = 0
	@ frame_needed = 1, uses_anonymous_args = 0
	UNWIND(.movsp ip)
	mov	ip, sp
	stmfd	sp!, {r4, r5, r6, r7, r8, r9, fp, ip, lr, pc}
	UNWIND(.pad #4)
	UNWIND(.save {r4, r5, r6, r7, r8, r9, fp, ip, lr})
	UNWIND(.setfp fp, ip, #-4)
	sub	fp, ip, #4
	add	lr, r2, #84
	mov	ip, r2, asl #3
	sub	r2, ip, r2, asl #1
	mov	r5, #0
	ldr	r7, [r0, lr, asl #2]
	add	r3, r3, r2
	cmp	r7, #64
	mov	r6, r3, asl #4
	movcs	r7, #64
	mov	r8, r7, lsr #2
.L1526:
	cmp	r5, r8
	ldmcsfd	sp, {r4, r5, r6, r7, r8, r9, fp, sp, pc}
	cmp	r7, #0
	beq	.L1526
	add	r3, r5, r6
	ldrb	ip, [r1]	@ zero_extendqisi2
	mov	r4, r1
	mov	r2, #0
	add	r3, r0, r3, lsl #2
	ldr	lr, [r3, #608]
	orr	ip, lr, ip
	str	ip, [r3, #608]
.L1532:
	add	r2, r2, #1
	add	r3, r5, r6
	and	lr, r2, #3
	cmp	r2, r7
	add	r3, r0, r3, lsl #2
	mov	ip, lr, asl #3
	beq	.L1526
	ldrb	r9, [r4, #1]!	@ zero_extendqisi2
	cmp	lr, #3
	ldr	lr, [r3, #608]
	addeq	r5, r5, #1
	orr	ip, lr, r9, asl ip
	str	ip, [r3, #608]
	b	.L1532
	UNWIND(.fnend)
	.size	HEVC_CalScalingList, .-HEVC_CalScalingList
	.align	2
	.global	HEVC_SetScalingList
	.type	HEVC_SetScalingList, %function
HEVC_SetScalingList:
	UNWIND(.fnstart)
	@ args = 0, pretend = 0, frame = 8
	@ frame_needed = 1, uses_anonymous_args = 0
	UNWIND(.movsp ip)
	mov	ip, sp
	stmfd	sp!, {r4, r5, r6, r7, r8, r9, r10, fp, ip, lr, pc}
	UNWIND(.pad #4)
	UNWIND(.save {r4, r5, r6, r7, r8, r9, r10, fp, ip, lr})
	UNWIND(.setfp fp, ip, #-4)
	sub	fp, ip, #4
	UNWIND(.pad #12)
	sub	sp, sp, #12
	ldr	r3, [r0, #2400]
	mov	r8, r0
	ldrb	r2, [r3, #3]	@ zero_extendqisi2
	cmp	r2, #0
	beq	.L1534
	ldr	r2, [r0, #2404]
	ldrb	r1, [r2, #21]	@ zero_extendqisi2
	cmp	r1, #0
	addne	r3, r2, #256
	strne	r3, [fp, #-48]
	beq	.L1551
.L1536:
	ldr	r3, [fp, #-48]
	cmp	r3, #0
	beq	.L1537
	ldr	r10, .L1552
	mov	r2, #1536
	mov	r1, #0
	add	r0, r8, #608
	add	r7, r8, #2208
	mov	r6, #0
	ldr	r3, [r10, #48]
	add	r7, r7, #12
	blx	r3
	ldr	r9, [fp, #-48]
.L1539:
	ldr	r3, [r7, #4]!
	cmp	r3, #0
	movne	r5, r9
	movne	r4, #0
	beq	.L1542
.L1540:
	mov	r3, r4
	mov	r1, r5
	mov	r2, r6
	mov	r0, r8
	bl	HEVC_CalScalingList
	ldr	r3, [r7]
	add	r4, r4, #1
	add	r5, r5, #64
	cmp	r3, r4
	bhi	.L1540
.L1542:
	add	r6, r6, #1
	add	r9, r9, #384
	cmp	r6, #4
	bne	.L1539
	ldr	r2, [fp, #-48]
	add	r0, r8, #2240
	ldr	r3, [r10, #52]
	add	r1, r2, #1536
	mov	r2, #96
	blx	r3
.L1534:
	mov	r0, #0
	sub	sp, fp, #40
	ldmfd	sp, {r4, r5, r6, r7, r8, r9, r10, fp, sp, pc}
.L1551:
	ldrb	r2, [r3, #4]	@ zero_extendqisi2
	cmp	r2, #0
	addne	r3, r3, #432
	strne	r3, [fp, #-48]
	bne	.L1536
.L1537:
	mov	r0, r8
	bl	HEVC_SetDefaultScalingList
	b	.L1534
.L1553:
	.align	2
.L1552:
	.word	vfmw_Osal_Func_Ptr_S
	UNWIND(.fnend)
	.size	HEVC_SetScalingList, .-HEVC_SetScalingList
	.align	2
	.global	HEVC_GetScalingListDefaultAddress
	.type	HEVC_GetScalingListDefaultAddress, %function
HEVC_GetScalingListDefaultAddress:
	UNWIND(.fnstart)
	@ args = 0, pretend = 0, frame = 0
	@ frame_needed = 1, uses_anonymous_args = 0
	UNWIND(.movsp ip)
	mov	ip, sp
	stmfd	sp!, {fp, ip, lr, pc}
	UNWIND(.pad #4)
	UNWIND(.save {fp, ip, lr})
	UNWIND(.setfp fp, ip, #-4)
	sub	fp, ip, #4
	cmp	r0, #3
	ldrls	pc, [pc, r0, asl #2]
	b	.L1555
.L1557:
	.word	.L1561
	.word	.L1559
	.word	.L1559
	.word	.L1560
.L1559:
	ldr	r3, .L1565
	cmp	r1, #2
	add	r0, r3, #64
	movhi	r0, r3
	ldmfd	sp, {fp, sp, pc}
.L1561:
	ldr	r0, .L1565+4
	ldmfd	sp, {fp, sp, pc}
.L1560:
	ldr	r3, .L1565
	cmp	r1, #0
	add	r0, r3, #64
	movne	r0, r3
	ldmfd	sp, {fp, sp, pc}
.L1555:
	ldr	r1, .L1565+8
	mov	r0, #1
	bl	dprint_vfmw
	mov	r0, #0
	ldmfd	sp, {fp, sp, pc}
.L1566:
	.align	2
.L1565:
	.word	.LANCHOR2+80
	.word	.LANCHOR2+64
	.word	.LC146
	UNWIND(.fnend)
	.size	HEVC_GetScalingListDefaultAddress, .-HEVC_GetScalingListDefaultAddress
	.align	2
	.global	HEVC_DecRefPicListsModification
	.type	HEVC_DecRefPicListsModification, %function
HEVC_DecRefPicListsModification:
	UNWIND(.fnstart)
	@ args = 0, pretend = 0, frame = 0
	@ frame_needed = 1, uses_anonymous_args = 0
	UNWIND(.movsp ip)
	mov	ip, sp
	stmfd	sp!, {r3, r4, r5, r6, r7, r8, r9, r10, fp, ip, lr, pc}
	UNWIND(.pad #4)
	UNWIND(.save {r3, r4, r5, r6, r7, r8, r9, r10, fp, ip, lr})
	UNWIND(.setfp fp, ip, #-4)
	sub	fp, ip, #4
	cmp	r2, #0
	cmpne	r1, #0
	mov	r5, r3
	mov	r7, r1
	mov	r8, r2
	moveq	ip, #1
	movne	ip, #0
	cmp	r0, #0
	orreq	ip, ip, #1
	mov	r6, r0
	cmp	ip, #0
	bne	.L1577
	sub	r2, r3, #1
	mov	r4, #1
	movs	r2, r2, asr #1
	beq	.L1569
.L1570:
	movs	r2, r2, asr #1
	add	r4, r4, #1
	bne	.L1570
.L1569:
	mov	r1, #1
	ldr	r0, [r6, #2368]
	bl	BsGet
	cmp	r5, #1
	movls	r10, #0
	movhi	r10, #1
	uxtb	r0, r0
	strb	r0, [r8]
	cmp	r0, #0
	cmpne	r5, #1
	bls	.L1574
	ldr	r3, [r7, #76]
	cmp	r3, #0
	beq	.L1574
	mov	r9, r8
	mov	r5, #0
.L1575:
	mov	r1, r4
	ldr	r0, [r6, #2368]
	bl	BsGet
	add	r5, r5, #1
	str	r0, [r9, #4]!
	ldr	r3, [r7, #76]
	cmp	r3, r5
	bhi	.L1575
.L1574:
	ldr	r5, [r7, #20]
	cmp	r5, #0
	beq	.L1592
.L1573:
	mov	r0, #0
	ldmfd	sp, {r3, r4, r5, r6, r7, r8, r9, r10, fp, sp, pc}
.L1592:
	mov	r1, #1
	ldr	r0, [r6, #2368]
	bl	BsGet
	uxtb	r0, r0
	strb	r0, [r8, #1]
	cmp	r0, #0
	moveq	r10, #0
	andne	r10, r10, #1
	cmp	r10, #0
	beq	.L1573
	ldr	r3, [r7, #80]
	cmp	r3, #0
	beq	.L1573
	add	r8, r8, #128
.L1576:
	mov	r1, r4
	ldr	r0, [r6, #2368]
	bl	BsGet
	add	r5, r5, #1
	str	r0, [r8, #4]!
	ldr	r3, [r7, #80]
	cmp	r3, r5
	bhi	.L1576
	mov	r0, #0
	ldmfd	sp, {r3, r4, r5, r6, r7, r8, r9, r10, fp, sp, pc}
.L1577:
	mvn	r0, #0
	ldmfd	sp, {r3, r4, r5, r6, r7, r8, r9, r10, fp, sp, pc}
	UNWIND(.fnend)
	.size	HEVC_DecRefPicListsModification, .-HEVC_DecRefPicListsModification
	.align	2
	.global	HEVC_MoreRbspData
	.type	HEVC_MoreRbspData, %function
HEVC_MoreRbspData:
	UNWIND(.fnstart)
	@ args = 0, pretend = 0, frame = 0
	@ frame_needed = 1, uses_anonymous_args = 0
	UNWIND(.movsp ip)
	mov	ip, sp
	stmfd	sp!, {r4, r5, fp, ip, lr, pc}
	UNWIND(.pad #4)
	UNWIND(.save {r4, r5, fp, ip, lr})
	UNWIND(.setfp fp, ip, #-4)
	sub	fp, ip, #4
	mov	r4, r0
	ldr	r0, [r0, #2368]
	bl	BsResidBits
	cmp	r0, #0
	ble	.L1595
	ldr	r3, [r4, #2388]
	ldr	r3, [r3, #12]
	add	r3, r3, #3
	cmp	r0, r3
	movls	r0, #0
	movhi	r0, #1
	ldmfd	sp, {r4, r5, fp, sp, pc}
.L1595:
	mov	r0, #0
	ldmfd	sp, {r4, r5, fp, sp, pc}
	UNWIND(.fnend)
	.size	HEVC_MoreRbspData, .-HEVC_MoreRbspData
	.align	2
	.global	HEVC_More_Rbsp_Data
	.type	HEVC_More_Rbsp_Data, %function
HEVC_More_Rbsp_Data:
	UNWIND(.fnstart)
	@ args = 0, pretend = 0, frame = 0
	@ frame_needed = 1, uses_anonymous_args = 0
	UNWIND(.movsp ip)
	mov	ip, sp
	stmfd	sp!, {fp, ip, lr, pc}
	UNWIND(.pad #4)
	UNWIND(.save {fp, ip, lr})
	UNWIND(.setfp fp, ip, #-4)
	sub	fp, ip, #4
	ldr	r0, [r0, #2368]
	ldr	r2, [r0, #16]
	ldr	r3, [r0, #24]
	mov	r2, r2, asl #3
	cmp	r2, r3
	bls	.L1599
	mov	r1, #8
	bl	BsShow
	subs	r0, r0, #128
	movne	r0, #1
	ldmfd	sp, {fp, sp, pc}
.L1599:
	ldr	r1, .L1600
	mov	r0, #1
	bl	dprint_vfmw
	mov	r0, #0
	ldmfd	sp, {fp, sp, pc}
.L1601:
	.align	2
.L1600:
	.word	.LC147
	UNWIND(.fnend)
	.size	HEVC_More_Rbsp_Data, .-HEVC_More_Rbsp_Data
	.align	2
	.global	HEVC_FindTrailZeros
	.type	HEVC_FindTrailZeros, %function
HEVC_FindTrailZeros:
	UNWIND(.fnstart)
	@ args = 0, pretend = 0, frame = 0
	@ frame_needed = 1, uses_anonymous_args = 0
	UNWIND(.movsp ip)
	mov	ip, sp
	stmfd	sp!, {r4, r5, r6, r7, fp, ip, lr, pc}
	UNWIND(.pad #4)
	UNWIND(.save {r4, r5, r6, r7, fp, ip, lr})
	UNWIND(.setfp fp, ip, #-4)
	sub	fp, ip, #4
	mov	ip, #0
	mov	r6, r0
.L1614:
	ldr	r1, [r6, #2388]
	ldr	r0, [r1, #8]
	sub	r0, r0, #1
	mov	r7, r0, asl #2
	mov	r0, r0, asl #5
	rsb	r2, r7, r0
	add	r2, r1, r2
	ldr	r3, [r2, #44]
	ldr	r2, [r2, #40]
	sub	r3, r3, #1
	add	r3, r2, r3
.L1603:
	ldrb	r4, [r3]	@ zero_extendqisi2
	rsb	r5, r7, r0
	add	r2, r1, r5
	cmp	r4, #0
	bne	.L1615
	ldr	lr, [r1, #40]
	add	ip, ip, #1
	cmp	lr, r3
	beq	.L1616
	ldr	lr, [r2, #40]
	cmp	lr, r3
	sub	r3, r3, #1
	bne	.L1603
	ldr	r1, [r2, #64]
	ldr	r0, [r6, #252]
	bl	SM_ReleaseStreamSeg
	ldr	r3, [r6, #2388]
	mov	ip, r4
	add	r5, r3, r5
	str	r4, [r5, #40]
	ldr	r2, [r6, #2388]
	ldr	r3, [r2, #8]
	sub	r3, r3, #1
	str	r3, [r2, #8]
	b	.L1614
.L1615:
	tst	r4, #1
	mov	r3, #1
	moveq	r2, r3
	bne	.L1610
.L1611:
	ands	r0, r4, r2, asl r3
	add	r3, r3, #1
	bne	.L1610
	cmp	r3, #8
	bne	.L1611
	ldr	r1, .L1617
	mov	r0, #1
	bl	dprint_vfmw
	mvn	r0, #0
	ldmfd	sp, {r4, r5, r6, r7, fp, sp, pc}
.L1616:
	ldr	r1, .L1617+4
	mov	r0, #1
	bl	dprint_vfmw
	mvn	r0, #0
	ldmfd	sp, {r4, r5, r6, r7, fp, sp, pc}
.L1610:
	mov	r0, #0
	str	r0, [r1, #4]
	ldr	r2, [r6, #2388]
	add	ip, r3, ip, lsl #3
	str	ip, [r2, #12]
	ldmfd	sp, {r4, r5, r6, r7, fp, sp, pc}
.L1618:
	.align	2
.L1617:
	.word	.LC149
	.word	.LC148
	UNWIND(.fnend)
	.size	HEVC_FindTrailZeros, .-HEVC_FindTrailZeros
	.align	2
	.global	HEVC_FindNaluArraySlot
	.type	HEVC_FindNaluArraySlot, %function
HEVC_FindNaluArraySlot:
	UNWIND(.fnstart)
	@ args = 0, pretend = 0, frame = 0
	@ frame_needed = 1, uses_anonymous_args = 0
	UNWIND(.movsp ip)
	mov	ip, sp
	stmfd	sp!, {r4, r5, r6, r7, r8, r9, fp, ip, lr, pc}
	UNWIND(.pad #4)
	UNWIND(.save {r4, r5, r6, r7, r8, r9, fp, ip, lr})
	UNWIND(.setfp fp, ip, #-4)
	sub	fp, ip, #4
	ldr	r5, [r0, #168]
	mov	r8, r0
	ldr	r3, [r0, #148]
	cmp	r5, #0
	blt	.L1620
	add	r6, r5, #1
	mov	r0, r3
	mov	r1, r6
	bl	__aeabi_uidivmod
	ldr	r7, [r8, #2412]
	mov	r3, r1
	mov	r1, r1, asl #5
	mov	ip, r3, asl #7
	rsb	r2, r1, ip
	add	r2, r7, r2
	ldr	r2, [r2, #32]
	cmp	r2, #0
	beq	.L1621
	mov	r4, #0
	b	.L1623
.L1624:
	bl	__aeabi_uidivmod
	mov	r3, r1
	mov	r1, r1, asl #5
	mov	ip, r3, asl #7
	rsb	r2, r1, ip
	add	r2, r7, r2
	ldr	r2, [r2, #32]
	cmp	r2, #0
	beq	.L1621
.L1623:
	add	r4, r4, #1
	mov	r1, r6
	cmp	r4, r5
	add	r0, r3, r4
	ble	.L1624
.L1620:
	mvn	r0, #0
	str	r3, [r8, #148]
	ldmfd	sp, {r4, r5, r6, r7, r8, r9, fp, sp, pc}
.L1621:
	cmp	r3, r6
	mov	r0, r3
	str	r3, [r8, #148]
	bcs	.L1634
	rsb	r1, r1, ip
	mov	r3, #1
	add	r7, r7, r1
	str	r3, [r7, #32]
	ldmfd	sp, {r4, r5, r6, r7, r8, r9, fp, sp, pc}
.L1634:
	mvn	r0, #0
	ldmfd	sp, {r4, r5, r6, r7, r8, r9, fp, sp, pc}
	UNWIND(.fnend)
	.size	HEVC_FindNaluArraySlot, .-HEVC_FindNaluArraySlot
	.align	2
	.global	HEVC_ReleaseNAL
	.type	HEVC_ReleaseNAL, %function
HEVC_ReleaseNAL:
	UNWIND(.fnstart)
	@ args = 0, pretend = 0, frame = 0
	@ frame_needed = 1, uses_anonymous_args = 0
	UNWIND(.movsp ip)
	mov	ip, sp
	stmfd	sp!, {r4, r5, r6, r7, fp, ip, lr, pc}
	UNWIND(.pad #4)
	UNWIND(.save {r4, r5, r6, r7, fp, ip, lr})
	UNWIND(.setfp fp, ip, #-4)
	sub	fp, ip, #4
	UNWIND(.pad #8)
	sub	sp, sp, #8
	subs	r5, r1, #0
	mov	r6, r0
	beq	.L1643
	add	r7, r5, #56
	mov	r4, r5
	mov	r3, #0
	str	r3, [r5, #32]
	str	r3, [r5, #36]
.L1638:
	ldr	r3, [r4, #40]
	mov	r0, r6
	cmp	r3, #0
	beq	.L1637
	ldr	r1, [r4, #64]
	bl	SM_ReleaseStreamSeg
	ldr	ip, [r4, #44]
	ldr	r3, [r4, #40]
	mov	r0, #7
	ldr	r2, .L1644
	ldr	r1, .L1644+4
	str	ip, [sp]
	bl	dprint_vfmw
	mov	r3, #0
	str	r3, [r4, #40]
	str	r3, [r4, #56]
	str	r3, [r4, #44]
.L1637:
	add	r4, r4, #28
	cmp	r4, r7
	bne	.L1638
	ldr	r3, .L1644+8
	mov	r0, r5
	mov	r2, #96
	mov	r1, #0
	ldr	r3, [r3, #48]
	sub	sp, fp, #28
	ldmfd	sp, {r4, r5, r6, r7, fp, sp, lr}
	bx	r3
.L1643:
	mov	r0, r5
	movw	r3, #14430
	ldr	r2, .L1644+12
	ldr	r1, .L1644+16
	sub	sp, fp, #28
	ldmfd	sp, {r4, r5, r6, r7, fp, sp, lr}
	b	dprint_vfmw
.L1645:
	.align	2
.L1644:
	.word	.LANCHOR0+476
	.word	.LC150
	.word	vfmw_Osal_Func_Ptr_S
	.word	.LC87
	.word	.LC88
	UNWIND(.fnend)
	.size	HEVC_ReleaseNAL, .-HEVC_ReleaseNAL
	.align	2
	.global	HEVC_InitDecBuffers
	.type	HEVC_InitDecBuffers, %function
HEVC_InitDecBuffers:
	UNWIND(.fnstart)
	@ args = 0, pretend = 0, frame = 0
	@ frame_needed = 1, uses_anonymous_args = 0
	UNWIND(.movsp ip)
	mov	ip, sp
	stmfd	sp!, {r4, r5, r6, r7, r8, r9, fp, ip, lr, pc}
	UNWIND(.pad #4)
	UNWIND(.save {r4, r5, r6, r7, r8, r9, fp, ip, lr})
	UNWIND(.setfp fp, ip, #-4)
	sub	fp, ip, #4
	UNWIND(.pad #8)
	sub	sp, sp, #8
	ldr	r3, [r0, #2400]
	mov	r7, r0
	ldr	r3, [r3, #184]
	add	r3, r3, #1
	str	r3, [r0, #2596]
	cmp	r3, #17
	bhi	.L1681
.L1647:
	add	r0, r7, #2816
	add	r1, r7, #2672
	add	r2, r7, #2608
	mov	lr, #0
	add	r0, r0, #4
	add	r1, r1, #12
	add	r2, r2, #8
	add	ip, r7, #2752
	mov	r3, lr
	mov	r6, #17
	str	lr, [r7, #2600]
	str	lr, [r7, #2612]
	str	lr, [r7, #2616]
	str	lr, [r7, #2608]
	str	lr, [r7, #2604]
.L1648:
	subs	r6, r6, #1
	str	r3, [r0, #4]!
	str	r3, [r1, #4]!
	str	r3, [ip, #4]!
	str	r3, [r2, #4]!
	bne	.L1648
	add	r4, r7, #12800
	ldr	r9, .L1682
	add	r4, r4, #24
.L1649:
	ldr	r3, [r9, #48]
	mov	r2, #640
	mov	r0, r4
	mov	r1, #0
	blx	r3
	str	r6, [r4, #148]
	add	r6, r6, #1
	mov	r5, #0
	cmp	r6, #20
	sub	r3, r4, #80
	strb	r5, [r4, #-80]
	mov	r2, #20
	str	r3, [r4, #-8]
	mov	r8, #16
	str	r5, [r4, #-32]
	add	r4, r4, #720
	strb	r5, [r4, #-799]
	str	r5, [r4, #-792]
	strb	r5, [r4, #-798]
	str	r5, [r4, #-744]
	str	r2, [r4, #-780]
	str	r8, [r4, #-776]
	ldr	r3, .L1682
	bne	.L1649
	ldr	r3, [r3, #48]
	mov	r2, #200
	mov	r1, r5
	add	r0, r7, #12544
	blx	r3
	add	r2, r7, #2416
	add	r3, r7, #2480
	add	r1, r7, #12288
	add	r2, r2, #8
	add	r3, r3, #12
	mov	r0, r5
	str	r8, [r1, #256]
	str	r5, [r1, #260]
.L1651:
	str	r0, [r2, #4]!
	cmp	r2, r3
	mov	r1, #0
	bne	.L1651
	add	lr, r7, #4096
	add	ip, r7, #2560
	mov	r0, r1
	str	r1, [lr, #196]
.L1652:
	str	r0, [r3, #4]!
	cmp	r3, ip
	mov	r2, #0
	bne	.L1652
	str	r2, [lr, #200]
	ldr	r0, [r7, #184]
	cmp	r0, r2
	addne	r1, r7, #2128
	movne	r3, r2
	addne	r1, r1, #12
	movne	r2, r3
	beq	.L1657
.L1656:
	add	r3, r3, #1
	str	r2, [r1, #4]!
	cmp	r3, r0
	bne	.L1656
.L1657:
	ldr	r2, [r7, #168]
	cmp	r2, #0
	movne	r4, #0
	movne	r5, r4
	beq	.L1646
.L1662:
	ldr	r3, [r7, #2408]
	mov	r6, r4, asl #2
	ldr	r1, [r3, r4, asl #2]
	cmp	r1, #0
	beq	.L1658
	ldr	r3, [r7, #2388]
	cmp	r1, r3
	beq	.L1658
	ldr	r0, [r7, #252]
	bl	HEVC_ReleaseNAL
	ldr	r3, [r7, #2408]
	str	r5, [r3, r6]
	ldr	r3, [r7, #204]
	ldr	r2, [r7, #236]
	cmp	r3, #0
	subne	r3, r3, #1
	cmp	r2, #0
	str	r3, [r7, #204]
	subne	r2, r2, #1
	ldr	r3, [r7, #176]
	str	r2, [r7, #236]
	ldr	r2, [r7, #168]
	cmp	r3, #2
	subhi	r3, r3, #1
	movls	r3, #2
	str	r3, [r7, #176]
.L1658:
	add	r4, r4, #1
	cmp	r2, r4
	bhi	.L1662
.L1646:
	sub	sp, fp, #36
	ldmfd	sp, {r4, r5, r6, r7, r8, r9, fp, sp, pc}
.L1681:
	mov	r4, #17
	ldr	r2, .L1682+4
	str	r4, [sp]
	mov	r3, r4
	ldr	r1, .L1682+8
	mov	r0, #1
	bl	dprint_vfmw
	str	r4, [r7, #2596]
	b	.L1647
.L1683:
	.align	2
.L1682:
	.word	vfmw_Osal_Func_Ptr_S
	.word	.LANCHOR0+492
	.word	.LC151
	UNWIND(.fnend)
	.size	HEVC_InitDecBuffers, .-HEVC_InitDecBuffers
	.align	2
	.global	HEVC_EmptyFrmFromDPB
	.type	HEVC_EmptyFrmFromDPB, %function
HEVC_EmptyFrmFromDPB:
	UNWIND(.fnstart)
	@ args = 0, pretend = 0, frame = 0
	@ frame_needed = 1, uses_anonymous_args = 0
	UNWIND(.movsp ip)
	mov	ip, sp
	stmfd	sp!, {r4, r5, r6, r7, r8, r9, fp, ip, lr, pc}
	UNWIND(.pad #4)
	UNWIND(.save {r4, r5, r6, r7, r8, r9, fp, ip, lr})
	UNWIND(.setfp fp, ip, #-4)
	sub	fp, ip, #4
	subs	r6, r0, #0
	beq	.L1694
	ldr	ip, [r6, #2600]
	add	r8, r6, #2608
	cmp	ip, #0
	addeq	r8, r8, #8
	beq	.L1686
	add	r8, r8, #8
	mov	r3, #0
	mov	lr, #1
	mov	r1, r8
.L1688:
	ldr	r2, [r1, #4]!
	add	r3, r3, #1
	ldrb	r0, [r2, #2]	@ zero_extendqisi2
	cmp	r0, #0
	streqb	lr, [r2, #2]
	ldreq	ip, [r6, #2600]
	cmp	ip, r3
	bhi	.L1688
.L1686:
	mov	r4, r6
	mov	r7, #17
	mov	r5, #0
	mov	r3, #-2147483647
	str	r3, [r6, #212]
.L1693:
	ldr	r3, [r8, #4]!
	mov	r2, #1
	cmp	r3, #0
	beq	.L1689
	ldr	r1, [r3, #28]
	ldr	r0, [r6, #252]
	bl	FSP_ClearLogicFs
.L1689:
	ldr	r3, [r4, #2688]
	mov	r2, #1
	cmp	r3, #0
	beq	.L1690
	ldr	r1, [r3, #28]
	ldr	r0, [r6, #252]
	bl	FSP_ClearLogicFs
.L1690:
	ldr	r3, [r4, #2756]
	mov	r2, #1
	cmp	r3, #0
	beq	.L1691
	ldr	r1, [r3, #28]
	ldr	r0, [r6, #252]
	bl	FSP_ClearLogicFs
.L1691:
	ldr	r3, [r4, #2824]
	mov	r2, #1
	cmp	r3, #0
	beq	.L1692
	ldr	r1, [r3, #28]
	ldr	r0, [r6, #252]
	bl	FSP_ClearLogicFs
.L1692:
	subs	r7, r7, #1
	str	r5, [r4, #2824]
	str	r5, [r4, #2756]
	add	r4, r4, #4
	str	r5, [r4, #2684]
	str	r5, [r4, #2616]
	bne	.L1693
	mov	r0, r6
	bl	HEVC_InitDecBuffers
	mov	r0, r7
	ldmfd	sp, {r4, r5, r6, r7, r8, r9, fp, sp, pc}
.L1694:
	mvn	r0, #0
	ldmfd	sp, {r4, r5, r6, r7, r8, r9, fp, sp, pc}
	UNWIND(.fnend)
	.size	HEVC_EmptyFrmFromDPB, .-HEVC_EmptyFrmFromDPB
	.align	2
	.global	HEVC_CombinePacket
	.type	HEVC_CombinePacket, %function
HEVC_CombinePacket:
	UNWIND(.fnstart)
	@ args = 0, pretend = 0, frame = 0
	@ frame_needed = 1, uses_anonymous_args = 0
	UNWIND(.movsp ip)
	mov	ip, sp
	stmfd	sp!, {r4, r5, fp, ip, lr, pc}
	UNWIND(.pad #4)
	UNWIND(.save {r4, r5, fp, ip, lr})
	UNWIND(.setfp fp, ip, #-4)
	sub	fp, ip, #4
	mov	r4, r0
	ldr	r0, [r0, #2388]
	cmp	r0, #0
	beq	.L1716
	ldr	r3, [r0, #44]
	cmp	r3, #4096
	ldmcsfd	sp, {r4, r5, fp, sp, pc}
	ldr	r1, .L1717
	mov	r0, #7
	bl	dprint_vfmw
	ldr	r3, [r4, #2388]
	ldr	ip, .L1717+4
	mov	r5, #0
	ldr	r2, [r3, #44]
	ldr	r0, [r3, #68]
	ldr	r1, [r3, #40]
	rsb	r0, r2, r0
	ldr	r3, [ip, #52]
	blx	r3
	ldr	r3, [r4, #2388]
	mov	r0, #1
	ldr	r2, [r3, #92]
	ldr	r1, [r3, #64]
	str	r2, [r3, #64]
	ldr	r3, [r4, #2388]
	str	r5, [r3, #56]
	ldr	r3, [r4, #2388]
	ldr	ip, [r3, #44]
	ldr	r2, [r3, #68]
	rsb	r2, ip, r2
	str	r2, [r3, #40]
	ldr	r3, [r4, #2388]
	ldr	ip, [r3, #44]
	ldr	r2, [r3, #76]
	rsb	r2, ip, r2
	str	r2, [r3, #48]
	ldr	r3, [r4, #2388]
	ldr	r2, [r3, #44]
	ldr	ip, [r3, #72]
	add	r2, r2, ip
	str	r2, [r3, #44]
	ldr	r3, [r4, #2388]
	str	r0, [r3, #8]
	ldr	r0, [r4, #252]
	bl	SM_ReleaseStreamSeg
	ldr	r3, [r4, #2388]
	str	r5, [r3, #68]
	ldr	r3, [r4, #2388]
	str	r5, [r3, #84]
	ldr	r3, [r4, #2388]
	str	r5, [r3, #72]
	ldmfd	sp, {r4, r5, fp, sp, pc}
.L1716:
	ldr	r1, .L1717+8
	sub	sp, fp, #20
	ldmfd	sp, {r4, r5, fp, sp, lr}
	b	dprint_vfmw
.L1718:
	.align	2
.L1717:
	.word	.LC153
	.word	vfmw_Osal_Func_Ptr_S
	.word	.LC152
	UNWIND(.fnend)
	.size	HEVC_CombinePacket, .-HEVC_CombinePacket
	.align	2
	.global	HEVC_IsOutDPB
	.type	HEVC_IsOutDPB, %function
HEVC_IsOutDPB:
	UNWIND(.fnstart)
	@ args = 0, pretend = 0, frame = 0
	@ frame_needed = 1, uses_anonymous_args = 0
	UNWIND(.movsp ip)
	mov	ip, sp
	stmfd	sp!, {fp, ip, lr, pc}
	UNWIND(.pad #4)
	UNWIND(.save {fp, ip, lr})
	UNWIND(.setfp fp, ip, #-4)
	sub	fp, ip, #4
	cmp	r1, #0
	beq	.L1724
	ldr	ip, [r0, #2600]
	cmp	ip, #0
	beq	.L1724
	ldr	r3, [r0, #2620]
	cmp	r3, r1
	beq	.L1726
	add	r0, r0, #2608
	mov	r3, #0
	add	r0, r0, #12
	b	.L1721
.L1722:
	ldr	r2, [r0, #4]!
	cmp	r2, r1
	beq	.L1726
.L1721:
	add	r3, r3, #1
	cmp	r3, ip
	bne	.L1722
.L1724:
	mov	r0, #1
	ldmfd	sp, {fp, sp, pc}
.L1726:
	mov	r0, #0
	ldmfd	sp, {fp, sp, pc}
	UNWIND(.fnend)
	.size	HEVC_IsOutDPB, .-HEVC_IsOutDPB
	.align	2
	.global	HEVC_IsNewPicNal
	.type	HEVC_IsNewPicNal, %function
HEVC_IsNewPicNal:
	UNWIND(.fnstart)
	@ args = 0, pretend = 0, frame = 0
	@ frame_needed = 1, uses_anonymous_args = 0
	UNWIND(.movsp ip)
	mov	ip, sp
	stmfd	sp!, {fp, ip, lr, pc}
	UNWIND(.pad #4)
	UNWIND(.save {fp, ip, lr})
	UNWIND(.setfp fp, ip, #-4)
	sub	fp, ip, #4
	mov	r0, #0
	ldmfd	sp, {fp, sp, pc}
	UNWIND(.fnend)
	.size	HEVC_IsNewPicNal, .-HEVC_IsNewPicNal
	.align	2
	.global	HEVC_u_v
	.type	HEVC_u_v, %function
HEVC_u_v:
	UNWIND(.fnstart)
	@ args = 0, pretend = 0, frame = 0
	@ frame_needed = 1, uses_anonymous_args = 0
	UNWIND(.movsp ip)
	mov	ip, sp
	stmfd	sp!, {fp, ip, lr, pc}
	UNWIND(.pad #4)
	UNWIND(.save {fp, ip, lr})
	UNWIND(.setfp fp, ip, #-4)
	sub	fp, ip, #4
	sub	sp, fp, #12
	ldmia	sp, {fp, sp, lr}
	b	BsGet
	UNWIND(.fnend)
	.size	HEVC_u_v, .-HEVC_u_v
	.align	2
	.global	HEVC_f_v
	.type	HEVC_f_v, %function
HEVC_f_v:
	UNWIND(.fnstart)
	@ args = 0, pretend = 0, frame = 0
	@ frame_needed = 1, uses_anonymous_args = 0
	UNWIND(.movsp ip)
	mov	ip, sp
	stmfd	sp!, {fp, ip, lr, pc}
	UNWIND(.pad #4)
	UNWIND(.save {fp, ip, lr})
	UNWIND(.setfp fp, ip, #-4)
	sub	fp, ip, #4
	sub	sp, fp, #12
	ldmia	sp, {fp, sp, lr}
	b	BsGet
	UNWIND(.fnend)
	.size	HEVC_f_v, .-HEVC_f_v
	.align	2
	.global	HEVC_ue_v
	.type	HEVC_ue_v, %function
HEVC_ue_v:
	UNWIND(.fnstart)
	@ args = 0, pretend = 0, frame = 0
	@ frame_needed = 1, uses_anonymous_args = 0
	UNWIND(.movsp ip)
	mov	ip, sp
	stmfd	sp!, {r4, r5, fp, ip, lr, pc}
	UNWIND(.pad #4)
	UNWIND(.save {r4, r5, fp, ip, lr})
	UNWIND(.setfp fp, ip, #-4)
	sub	fp, ip, #4
	mov	r1, #32
	mov	r5, r0
	bl	BsShow
	bl	ZerosMS_32
	cmp	r0, #31
	bls	.L1733
	movw	r0, #61166
	movt	r0, 65535
	ldmfd	sp, {r4, r5, fp, sp, pc}
.L1733:
	add	r4, r0, #1
	mov	r1, r0
	mov	r0, r5
	bl	BsSkip
	mov	r1, r4
	mov	r0, r5
	bl	BsShow
	mov	r1, r4
	sub	r4, r0, #1
	mov	r0, r5
	bl	BsSkip
	mov	r0, r4
	ldmfd	sp, {r4, r5, fp, sp, pc}
	UNWIND(.fnend)
	.size	HEVC_ue_v, .-HEVC_ue_v
	.align	2
	.global	HEVC_Sei_Tone_Mapping_Info
	.type	HEVC_Sei_Tone_Mapping_Info, %function
HEVC_Sei_Tone_Mapping_Info:
	UNWIND(.fnstart)
	@ args = 0, pretend = 0, frame = 0
	@ frame_needed = 1, uses_anonymous_args = 0
	UNWIND(.movsp ip)
	mov	ip, sp
	stmfd	sp!, {r4, r5, r6, r7, r8, r9, fp, ip, lr, pc}
	UNWIND(.pad #4)
	UNWIND(.save {r4, r5, r6, r7, r8, r9, fp, ip, lr})
	UNWIND(.setfp fp, ip, #-4)
	sub	fp, ip, #4
	ldr	r1, .L1756
	mov	r4, r0
	ldr	r0, [r0, #2368]
	bl	HEVC_ue_v
	ldr	r0, [r4, #2368]
	mov	r1, #1
	bl	BsGet
	tst	r0, #255
	beq	.L1753
.L1739:
	mov	r1, #32
	ldr	r0, [r4, #2368]
	bl	BsGet
	ldr	r0, [r4, #2368]
	mov	r1, #32
	bl	BsGet
	mov	r0, #0
	ldmfd	sp, {r4, r5, r6, r7, r8, r9, fp, sp, pc}
.L1753:
	mov	r1, #1
	ldr	r0, [r4, #2368]
	bl	BsGet
	mov	r1, #8
	ldr	r0, [r4, #2368]
	bl	BsGet
	mov	r1, #8
	mov	r6, r0
	ldr	r0, [r4, #2368]
	bl	BsGet
	cmp	r0, #8
	mov	r7, r0
	bhi	.L1754
	mov	r1, #8
	ldr	r0, [r4, #2368]
	bl	BsGet
	cmp	r0, #4
	ldrls	pc, [pc, r0, asl #2]
	b	.L1750
.L1738:
	.word	.L1739
	.word	.L1739
	.word	.L1740
	.word	.L1741
	.word	.L1742
.L1741:
	mov	r1, #16
	ldr	r0, [r4, #2368]
	bl	BsGet
	cmp	r0, #256
	mov	r8, r0
	bhi	.L1746
	cmp	r0, #0
	beq	.L1750
	add	r6, r6, #7
	add	r7, r7, #7
	bic	r6, r6, #7
	bic	r7, r7, #7
	mov	r5, #0
.L1748:
	mov	r1, r6
	ldr	r0, [r4, #2368]
	bl	BsGet
	add	r5, r5, #1
	mov	r1, r7
	ldr	r0, [r4, #2368]
	bl	BsGet
	cmp	r5, r8
	bne	.L1748
.L1750:
	mov	r0, #0
	ldmfd	sp, {r4, r5, r6, r7, r8, r9, fp, sp, pc}
.L1740:
	mov	r2, #1
	movs	r7, r2, asl r7
	addne	r6, r6, #7
	movne	r5, #0
	bicne	r6, r6, #7
	beq	.L1750
.L1744:
	add	r5, r5, #1
	mov	r1, r6
	ldr	r0, [r4, #2368]
	bl	BsGet
	cmp	r7, r5
	bne	.L1744
	mov	r0, #0
	ldmfd	sp, {r4, r5, r6, r7, r8, r9, fp, sp, pc}
.L1742:
	mov	r1, #8
	ldr	r0, [r4, #2368]
	bl	BsGet
	cmp	r0, #255
	beq	.L1755
.L1749:
	mov	r1, #1
	ldr	r0, [r4, #2368]
	bl	BsGet
	mov	r1, #16
	ldr	r0, [r4, #2368]
	bl	BsGet
	mov	r1, #16
	ldr	r0, [r4, #2368]
	bl	BsGet
	mov	r1, #32
	ldr	r0, [r4, #2368]
	bl	BsGet
	mov	r1, #32
	ldr	r0, [r4, #2368]
	bl	BsGet
	mov	r1, #16
	ldr	r0, [r4, #2368]
	bl	BsGet
	mov	r1, #16
	ldr	r0, [r4, #2368]
	bl	BsGet
	mov	r1, #16
	ldr	r0, [r4, #2368]
	bl	BsGet
	ldr	r0, [r4, #2368]
	mov	r1, #16
	bl	BsGet
	mov	r0, #0
	ldmfd	sp, {r4, r5, r6, r7, r8, r9, fp, sp, pc}
.L1755:
	mov	r1, #32
	ldr	r0, [r4, #2368]
	bl	BsGet
	b	.L1749
.L1754:
	mov	r2, r0
	ldr	r1, .L1756+4
	mov	r0, #1
	bl	dprint_vfmw
	mvn	r0, #0
	ldmfd	sp, {r4, r5, r6, r7, r8, r9, fp, sp, pc}
.L1746:
	ldr	r1, .L1756+8
	mov	r0, #1
	bl	dprint_vfmw
	mvn	r0, #0
	ldmfd	sp, {r4, r5, r6, r7, r8, r9, fp, sp, pc}
.L1757:
	.align	2
.L1756:
	.word	.LC154
	.word	.LC155
	.word	.LC156
	UNWIND(.fnend)
	.size	HEVC_Sei_Tone_Mapping_Info, .-HEVC_Sei_Tone_Mapping_Info
	.align	2
	.global	HEVC_Sei_Frame_Packing_Arrangement
	.type	HEVC_Sei_Frame_Packing_Arrangement, %function
HEVC_Sei_Frame_Packing_Arrangement:
	UNWIND(.fnstart)
	@ args = 0, pretend = 0, frame = 0
	@ frame_needed = 1, uses_anonymous_args = 0
	UNWIND(.movsp ip)
	mov	ip, sp
	stmfd	sp!, {r4, r5, r6, r7, fp, ip, lr, pc}
	UNWIND(.pad #4)
	UNWIND(.save {r4, r5, r6, r7, fp, ip, lr})
	UNWIND(.setfp fp, ip, #-4)
	sub	fp, ip, #4
	ldr	r1, .L1768
	mov	r4, r0
	ldr	r0, [r0, #2368]
	bl	HEVC_ue_v
	ldr	r0, [r4, #2368]
	mov	r1, #1
	bl	BsGet
	tst	r0, #255
	bne	.L1759
	mov	r1, #7
	ldr	r0, [r4, #2368]
	bl	BsGet
	sub	r3, r0, #3
	mov	r6, r0
	cmp	r3, #2
	bhi	.L1766
	mov	r1, #1
	ldr	r0, [r4, #2368]
	bl	BsGet
	mov	r1, #6
	mov	r5, r0
	ldr	r0, [r4, #2368]
	bl	BsGet
	mov	r1, #1
	ldr	r0, [r4, #2368]
	uxtb	r5, r5
	bl	BsGet
	mov	r1, #1
	ldr	r0, [r4, #2368]
	clz	r5, r5
	bl	BsGet
	mov	r1, #1
	ldr	r0, [r4, #2368]
	mov	r5, r5, lsr #5
	bl	BsGet
	mov	r1, #1
	ldr	r0, [r4, #2368]
	bl	BsGet
	mov	r1, #1
	ldr	r0, [r4, #2368]
	bl	BsGet
	mov	r1, #1
	ldr	r0, [r4, #2368]
	bl	BsGet
	cmp	r6, #5
	moveq	r5, #0
	cmp	r5, #0
	bne	.L1767
.L1762:
	mov	r1, #8
	ldr	r0, [r4, #2368]
	bl	BsGet
	mov	r1, #1
	ldr	r0, [r4, #2368]
	bl	BsGet
.L1759:
	mov	r1, #1
	ldr	r0, [r4, #2368]
	bl	BsGet
	ldr	r0, [r4, #2368]
	bl	BsToNextByte
	mov	r0, #0
	ldmfd	sp, {r4, r5, r6, r7, fp, sp, pc}
.L1767:
	mov	r1, #4
	ldr	r0, [r4, #2368]
	bl	BsGet
	mov	r1, #4
	ldr	r0, [r4, #2368]
	bl	BsGet
	mov	r1, #4
	ldr	r0, [r4, #2368]
	bl	BsGet
	mov	r1, #4
	ldr	r0, [r4, #2368]
	bl	BsGet
	b	.L1762
.L1766:
	mov	r2, r0
	ldr	r1, .L1768+4
	mov	r0, #1
	bl	dprint_vfmw
	mvn	r0, #0
	ldmfd	sp, {r4, r5, r6, r7, fp, sp, pc}
.L1769:
	.align	2
.L1768:
	.word	.LC157
	.word	.LC158
	UNWIND(.fnend)
	.size	HEVC_Sei_Frame_Packing_Arrangement, .-HEVC_Sei_Frame_Packing_Arrangement
	.align	2
	.global	HEVC_Sei_Dec_Unit_Info
	.type	HEVC_Sei_Dec_Unit_Info, %function
HEVC_Sei_Dec_Unit_Info:
	UNWIND(.fnstart)
	@ args = 0, pretend = 0, frame = 0
	@ frame_needed = 1, uses_anonymous_args = 0
	UNWIND(.movsp ip)
	mov	ip, sp
	stmfd	sp!, {r4, r5, fp, ip, lr, pc}
	UNWIND(.pad #4)
	UNWIND(.save {r4, r5, fp, ip, lr})
	UNWIND(.setfp fp, ip, #-4)
	sub	fp, ip, #4
	cmp	r2, #0
	cmpne	r1, #0
	mov	r5, r2
	mov	r4, r0
	moveq	r1, #1
	movne	r1, #0
	cmp	r0, #0
	orreq	r1, r1, #1
	cmp	r1, #0
	bne	.L1774
	ldr	r1, .L1783
	ldr	r0, [r0, #2368]
	bl	HEVC_ue_v
	ldrb	r3, [r5, #3]	@ zero_extendqisi2
	cmp	r3, #0
	bne	.L1781
.L1772:
	mov	r1, #1
	ldr	r0, [r4, #2368]
	bl	BsGet
	tst	r0, #255
	bne	.L1782
.L1773:
	ldr	r0, [r4, #2368]
	bl	BsToNextByte
	mov	r0, #0
	ldmfd	sp, {r4, r5, fp, sp, pc}
.L1781:
	ldr	r1, [r5, #4]
	ldr	r0, [r4, #2368]
	add	r1, r1, #1
	bl	BsGet
	b	.L1772
.L1782:
	ldr	r1, [r5, #8]
	ldr	r0, [r4, #2368]
	add	r1, r1, #1
	bl	BsGet
	b	.L1773
.L1774:
	mvn	r0, #0
	ldmfd	sp, {r4, r5, fp, sp, pc}
.L1784:
	.align	2
.L1783:
	.word	.LC159
	UNWIND(.fnend)
	.size	HEVC_Sei_Dec_Unit_Info, .-HEVC_Sei_Dec_Unit_Info
	.align	2
	.global	HEVC_Sei_Active_Param_sets
	.type	HEVC_Sei_Active_Param_sets, %function
HEVC_Sei_Active_Param_sets:
	UNWIND(.fnstart)
	@ args = 0, pretend = 0, frame = 0
	@ frame_needed = 1, uses_anonymous_args = 0
	UNWIND(.movsp ip)
	mov	ip, sp
	stmfd	sp!, {r4, r5, r6, r7, fp, ip, lr, pc}
	UNWIND(.pad #4)
	UNWIND(.save {r4, r5, r6, r7, fp, ip, lr})
	UNWIND(.setfp fp, ip, #-4)
	sub	fp, ip, #4
	mov	r1, #4
	mov	r5, r0
	ldr	r0, [r0, #2368]
	bl	BsGet
	mov	r1, #1
	ldr	r0, [r5, #2368]
	bl	BsGet
	mov	r1, #1
	ldr	r0, [r5, #2368]
	bl	BsGet
	ldr	r0, [r5, #2368]
	ldr	r1, .L1792
	bl	HEVC_ue_v
	cmp	r0, #15
	bgt	.L1786
	cmp	r0, #0
	addge	r6, r0, #1
	movge	r4, #0
	blt	.L1790
.L1789:
	add	r4, r4, #1
	ldr	r1, .L1792+4
	ldr	r0, [r5, #2368]
	bl	HEVC_ue_v
	cmp	r4, r6
	bne	.L1789
.L1790:
	ldr	r0, [r5, #2368]
	bl	BsToNextByte
	mov	r0, #0
	ldmfd	sp, {r4, r5, r6, r7, fp, sp, pc}
.L1786:
	ldr	r1, .L1792+8
	mov	r0, #1
	bl	dprint_vfmw
	mvn	r0, #0
	ldmfd	sp, {r4, r5, r6, r7, fp, sp, pc}
.L1793:
	.align	2
.L1792:
	.word	.LC160
	.word	.LC162
	.word	.LC161
	UNWIND(.fnend)
	.size	HEVC_Sei_Active_Param_sets, .-HEVC_Sei_Active_Param_sets
	.align	2
	.global	HEVC_Sei_Buf_Period
	.type	HEVC_Sei_Buf_Period, %function
HEVC_Sei_Buf_Period:
	UNWIND(.fnstart)
	@ args = 0, pretend = 0, frame = 0
	@ frame_needed = 1, uses_anonymous_args = 0
	UNWIND(.movsp ip)
	mov	ip, sp
	stmfd	sp!, {r4, r5, r6, r7, r8, r9, fp, ip, lr, pc}
	UNWIND(.pad #4)
	UNWIND(.save {r4, r5, r6, r7, r8, r9, fp, ip, lr})
	UNWIND(.setfp fp, ip, #-4)
	sub	fp, ip, #4
	add	r4, r0, #8192
	mov	r5, r0
	mov	r9, r1
	mov	r6, #0
	ldr	r1, .L1823
	mov	r7, r2
	str	r6, [r4, #2944]
	ldr	r0, [r0, #2368]
	bl	HEVC_ue_v
	cmp	r0, #15
	bhi	.L1819
	mov	r1, #1
	strb	r1, [r4, #2937]
	ldrb	r3, [r7, #2]	@ zero_extendqisi2
	cmp	r3, #0
	movne	r8, r6
	beq	.L1820
.L1797:
	mov	r1, #1
	ldr	r0, [r5, #2368]
	bl	BsGet
	mov	r4, #1
	strb	r0, [r9]
	ldr	r1, [r7, #16]
	ldr	r0, [r5, #2368]
	add	r1, r1, r4
	bl	BsGet
	subs	r3, r4, #1
	beq	.L1821
.L1799:
	cmp	r3, #1
	beq	.L1822
.L1803:
	cmp	r4, #1
	bhi	.L1802
.L1801:
	add	r4, r4, #1
	subs	r3, r4, #1
	bne	.L1799
.L1821:
	ldrb	r2, [r7]	@ zero_extendqisi2
	cmp	r2, #0
	beq	.L1803
	ldr	r2, [r7, #24]
	cmn	r2, #1
	beq	.L1801
.L1810:
	mov	r6, #0
	b	.L1806
.L1805:
	ldr	r3, [r7, #24]
	add	r3, r3, #1
	cmp	r3, r6
	bls	.L1803
.L1806:
	ldr	r1, [r7, #12]
	add	r6, r6, #1
	ldr	r0, [r5, #2368]
	add	r1, r1, #1
	bl	BsGet
	ldr	r1, [r7, #12]
	ldr	r0, [r5, #2368]
	add	r1, r1, #1
	bl	BsGet
	ldrb	r3, [r7, #2]	@ zero_extendqisi2
	orrs	r3, r8, r3
	beq	.L1805
	ldr	r1, [r7, #12]
	ldr	r0, [r5, #2368]
	add	r1, r1, #1
	bl	BsGet
	ldr	r1, [r7, #12]
	ldr	r0, [r5, #2368]
	add	r1, r1, #1
	bl	BsGet
	b	.L1805
.L1822:
	ldrb	r3, [r7, #1]	@ zero_extendqisi2
	cmp	r3, #0
	beq	.L1802
	ldr	r3, [r7, #24]
	cmn	r3, #1
	bne	.L1810
.L1802:
	ldr	r0, [r5, #2368]
	bl	BsToNextByte
	mov	r0, #0
	ldmfd	sp, {r4, r5, r6, r7, r8, r9, fp, sp, pc}
.L1820:
	ldr	r0, [r5, #2368]
	bl	BsGet
	uxtb	r8, r0
	cmp	r8, #0
	beq	.L1797
	ldr	r1, [r7, #16]
	ldr	r0, [r5, #2368]
	add	r1, r1, #1
	bl	BsGet
	ldr	r1, [r7, #20]
	ldr	r0, [r5, #2368]
	add	r1, r1, #1
	bl	BsGet
	b	.L1797
.L1819:
	mov	r2, r0
	ldr	r1, .L1823+4
	mov	r0, #1
	bl	dprint_vfmw
	mvn	r0, #0
	ldmfd	sp, {r4, r5, r6, r7, r8, r9, fp, sp, pc}
.L1824:
	.align	2
.L1823:
	.word	.LC163
	.word	.LC164
	UNWIND(.fnend)
	.size	HEVC_Sei_Buf_Period, .-HEVC_Sei_Buf_Period
	.align	2
	.global	HEVC_Sei_Pic_Timming
	.type	HEVC_Sei_Pic_Timming, %function
HEVC_Sei_Pic_Timming:
	UNWIND(.fnstart)
	@ args = 0, pretend = 0, frame = 0
	@ frame_needed = 1, uses_anonymous_args = 0
	UNWIND(.movsp ip)
	mov	ip, sp
	stmfd	sp!, {r4, r5, r6, r7, r8, r9, fp, ip, lr, pc}
	UNWIND(.pad #4)
	UNWIND(.save {r4, r5, r6, r7, r8, r9, fp, ip, lr})
	UNWIND(.setfp fp, ip, #-4)
	sub	fp, ip, #4
	add	r3, r0, #8192
	mov	r5, r2
	mov	r6, r1
	mov	r4, r0
	ldr	r1, [r3, #2940]
	ldr	r2, [r3, #2944]
	add	r1, r1, #1
	str	r1, [r3, #2940]
	add	r2, r2, #1
	str	r2, [r3, #2944]
	ldrb	r3, [r5, #2]	@ zero_extendqisi2
	cmp	r3, #0
	bne	.L1853
.L1826:
	ldrh	r3, [r5, #44]
	cmp	r3, #0
	beq	.L1828
	ldr	r1, [r5, #60]
	ldr	r0, [r4, #2368]
	add	r1, r1, #1
	bl	BsGet
	add	r0, r0, #1
	str	r0, [r6, #8]
	ldr	r1, [r5, #64]
	ldr	r0, [r4, #2368]
	add	r1, r1, #1
	bl	BsGet
	str	r0, [r6, #12]
	ldrb	r3, [r5, #46]	@ zero_extendqisi2
	cmp	r3, #0
	bne	.L1829
.L1832:
	ldr	r2, [r4, #252]
	ldr	r3, .L1856
	ldr	r3, [r3, r2, asl #2]
	ldrsb	r2, [r3, #44]
	cmp	r2, #1
	beq	.L1854
.L1828:
	ldr	r0, [r4, #2368]
	bl	BsToNextByte
	mov	r0, #0
	ldmfd	sp, {r4, r5, r6, r7, r8, r9, fp, sp, pc}
.L1853:
	mov	r1, #4
	ldr	r0, [r0, #2368]
	bl	BsGet
	mov	r1, #2
	str	r0, [r6]
	ldr	r0, [r4, #2368]
	bl	BsGet
	mov	r1, #1
	str	r0, [r6, #4]
	ldr	r0, [r4, #2368]
	bl	BsGet
	b	.L1826
.L1854:
	ldr	r2, [r3, #160]
	cmp	r2, #1
	bne	.L1828
	ldr	r3, [r3, #164]
	cmp	r3, #2
	bne	.L1828
	mov	r1, r5
	mov	r0, r4
	bl	HEVC_Sei_Get_Dpb_Output_Time
	b	.L1828
.L1829:
	ldr	r1, [r5, #52]
	ldr	r0, [r4, #2368]
	add	r1, r1, #1
	bl	BsGet
	ldrb	r3, [r5, #46]	@ zero_extendqisi2
	cmp	r3, #0
	beq	.L1832
	ldrb	r3, [r5, #47]	@ zero_extendqisi2
	cmp	r3, #0
	beq	.L1832
	ldr	r1, .L1856+4
	ldr	r0, [r4, #2368]
	bl	HEVC_ue_v
	mov	r1, #1
	mov	r7, r0
	ldr	r0, [r4, #2368]
	bl	BsGet
	uxtb	r8, r0
	cmp	r8, #0
	bne	.L1855
.L1833:
	cmp	r7, #255
	bhi	.L1837
	add	r7, r7, #1
	mov	r6, #0
	b	.L1836
.L1835:
	cmp	r6, r7
	beq	.L1832
.L1836:
	ldr	r1, .L1856+8
	add	r6, r6, #1
	ldr	r0, [r4, #2368]
	bl	HEVC_ue_v
	cmp	r8, #0
	bne	.L1835
	ldr	r1, [r5, #48]
	ldr	r0, [r4, #2368]
	add	r1, r1, #1
	bl	BsGet
	b	.L1835
.L1855:
	ldr	r1, [r5, #48]
	ldr	r0, [r4, #2368]
	add	r1, r1, #1
	bl	BsGet
	b	.L1833
.L1837:
	ldr	r1, .L1856+12
	mov	r0, #1
	bl	dprint_vfmw
	mvn	r0, #0
	ldmfd	sp, {r4, r5, r6, r7, r8, r9, fp, sp, pc}
.L1857:
	.align	2
.L1856:
	.word	s_pstVfmwChan
	.word	.LC165
	.word	.LC167
	.word	.LC166
	UNWIND(.fnend)
	.size	HEVC_Sei_Pic_Timming, .-HEVC_Sei_Pic_Timming
	.align	2
	.global	HEVC_Sei_Color_Volume_Reconstruction_Info
	.type	HEVC_Sei_Color_Volume_Reconstruction_Info, %function
HEVC_Sei_Color_Volume_Reconstruction_Info:
	UNWIND(.fnstart)
	@ args = 0, pretend = 0, frame = 0
	@ frame_needed = 1, uses_anonymous_args = 0
	UNWIND(.movsp ip)
	mov	ip, sp
	stmfd	sp!, {r4, r5, r6, r7, fp, ip, lr, pc}
	UNWIND(.pad #4)
	UNWIND(.save {r4, r5, r6, r7, fp, ip, lr})
	UNWIND(.setfp fp, ip, #-4)
	sub	fp, ip, #4
	cmp	r1, #0
	cmpne	r0, #0
	mov	r4, r0
	mov	r5, r1
	beq	.L1868
	ldr	r1, .L1872
	ldr	r0, [r0, #2368]
	bl	HEVC_ue_v
	mov	r1, #1
	ldr	r0, [r4, #2368]
	bl	BsGet
	tst	r0, #255
	beq	.L1860
.L1864:
	mov	r3, #1
	mov	r0, #0
	strb	r3, [r5]
	ldmfd	sp, {r4, r5, r6, r7, fp, sp, pc}
.L1860:
	mov	r1, #1
	ldr	r0, [r4, #2368]
	bl	BsGet
	mov	r1, #1
	ldr	r0, [r4, #2368]
	bl	BsGet
	uxtb	r0, r0
	cmp	r0, #1
	beq	.L1871
.L1861:
	mov	r1, #8
	ldr	r0, [r4, #2368]
	bl	BsGet
	mov	r1, #8
	strb	r0, [r5, #2]
	ldr	r0, [r4, #2368]
	bl	BsGet
	mov	r1, #8
	strb	r0, [r5, #3]
	ldr	r0, [r4, #2368]
	bl	BsGet
	mov	r1, #8
	strb	r0, [r5, #4]
	ldr	r0, [r4, #2368]
	bl	BsGet
	mov	r1, #8
	strb	r0, [r5, #5]
	ldr	r0, [r4, #2368]
	bl	BsGet
	mov	r1, #4
	strb	r0, [r5, #6]
	ldr	r0, [r4, #2368]
	bl	BsGet
	tst	r0, #255
	strb	r0, [r5, #7]
	addne	r7, r5, #7
	movne	r6, #0
	beq	.L1866
.L1865:
	mov	r1, #8
	ldr	r0, [r4, #2368]
	bl	BsGet
	mov	r1, #8
	add	r6, r6, #1
	strb	r0, [r7, #1]!
	ldr	r0, [r4, #2368]
	bl	BsGet
	strb	r0, [r7, #15]
	ldrb	r3, [r5, #7]	@ zero_extendqisi2
	cmp	r3, r6
	bhi	.L1865
.L1866:
	mov	r1, #4
	ldr	r0, [r4, #2368]
	bl	BsGet
	tst	r0, #255
	strb	r0, [r5, #38]
	addne	r7, r5, #38
	movne	r6, #0
	beq	.L1864
.L1867:
	mov	r1, #8
	ldr	r0, [r4, #2368]
	bl	BsGet
	mov	r1, #8
	add	r6, r6, #1
	strb	r0, [r7, #1]!
	ldr	r0, [r4, #2368]
	bl	BsGet
	strb	r0, [r7, #15]
	ldrb	r3, [r5, #38]	@ zero_extendqisi2
	cmp	r3, r6
	bhi	.L1867
	b	.L1864
.L1868:
	mvn	r0, #0
	ldmfd	sp, {r4, r5, r6, r7, fp, sp, pc}
.L1871:
	mov	r1, #8
	ldr	r0, [r4, #2368]
	bl	BsGet
	mov	r1, #8
	strb	r0, [r5, #1]
	ldr	r0, [r4, #2368]
	bl	BsGet
	b	.L1861
.L1873:
	.align	2
.L1872:
	.word	.LC168
	UNWIND(.fnend)
	.size	HEVC_Sei_Color_Volume_Reconstruction_Info, .-HEVC_Sei_Color_Volume_Reconstruction_Info
	.align	2
	.global	HEVC_Sei_User_Data_Registered_Itu_T_T35
	.type	HEVC_Sei_User_Data_Registered_Itu_T_T35, %function
HEVC_Sei_User_Data_Registered_Itu_T_T35:
	UNWIND(.fnstart)
	@ args = 0, pretend = 0, frame = 0
	@ frame_needed = 1, uses_anonymous_args = 0
	UNWIND(.movsp ip)
	mov	ip, sp
	stmfd	sp!, {r4, r5, r6, r7, fp, ip, lr, pc}
	UNWIND(.pad #4)
	UNWIND(.save {r4, r5, r6, r7, fp, ip, lr})
	UNWIND(.setfp fp, ip, #-4)
	sub	fp, ip, #4
	cmp	r1, #0
	cmpne	r0, #0
	mov	r6, r2
	mov	r5, r0
	moveq	r4, #1
	movne	r4, #0
	beq	.L1881
	cmp	r2, #3
	bls	.L1884
	mov	r1, #8
	ldr	r0, [r0, #2368]
	bl	BsGet
	mov	r1, #16
	ldr	r0, [r5, #2368]
	bl	BsGet
	mov	r1, #8
	ldr	r0, [r5, #2368]
	bl	BsGet
	uxtb	r0, r0
	cmp	r0, #2
	beq	.L1885
	cmp	r0, #4
	beq	.L1886
	subs	r6, r6, #4
	beq	.L1880
.L1879:
	add	r4, r4, #1
	mov	r1, #8
	ldr	r0, [r5, #2368]
	bl	BsGet
	cmp	r6, r4
	bne	.L1879
.L1880:
	mov	r0, #0
	ldmfd	sp, {r4, r5, r6, r7, fp, sp, pc}
.L1885:
	add	r1, r5, #2944
	mov	r0, r5
	add	r1, r1, #8
	bl	HEVC_Sei_TSI
	cmn	r0, #1
	movne	r0, #0
	moveq	r0, #1
	rsb	r0, r0, #0
	ldmfd	sp, {r4, r5, r6, r7, fp, sp, pc}
.L1886:
	add	r1, r5, #2944
	mov	r0, r5
	add	r1, r1, #11
	bl	HEVC_Sei_Color_Volume_Reconstruction_Info
	cmn	r0, #1
	movne	r0, #0
	moveq	r0, #1
	rsb	r0, r0, #0
	ldmfd	sp, {r4, r5, r6, r7, fp, sp, pc}
.L1881:
	mvn	r0, #0
	ldmfd	sp, {r4, r5, r6, r7, fp, sp, pc}
.L1884:
	ldr	r1, .L1887
	mov	r0, #1
	bl	dprint_vfmw
	mvn	r0, #0
	ldmfd	sp, {r4, r5, r6, r7, fp, sp, pc}
.L1888:
	.align	2
.L1887:
	.word	.LC169
	UNWIND(.fnend)
	.size	HEVC_Sei_User_Data_Registered_Itu_T_T35, .-HEVC_Sei_User_Data_Registered_Itu_T_T35
	.align	2
	.global	HEVC_DecShortTermRefPicSet
	.type	HEVC_DecShortTermRefPicSet, %function
HEVC_DecShortTermRefPicSet:
	UNWIND(.fnstart)
	@ args = 0, pretend = 0, frame = 16
	@ frame_needed = 1, uses_anonymous_args = 0
	UNWIND(.movsp ip)
	mov	ip, sp
	stmfd	sp!, {r4, r5, r6, r7, r8, r9, r10, fp, ip, lr, pc}
	UNWIND(.pad #4)
	UNWIND(.save {r4, r5, r6, r7, r8, r9, r10, fp, ip, lr})
	UNWIND(.setfp fp, ip, #-4)
	sub	fp, ip, #4
	UNWIND(.pad #20)
	sub	sp, sp, #20
	subs	r6, r3, #0
	mov	r5, r0
	mov	r9, r1
	mov	r4, r2
	bne	.L1934
.L1890:
	ldr	r1, .L1943
	ldr	r0, [r5, #2368]
	bl	HEVC_ue_v
	cmp	r0, #16
	str	r0, [r4]
	bhi	.L1935
	ldr	r1, .L1943+4
	ldr	r0, [r5, #2368]
	bl	HEVC_ue_v
	cmp	r0, #16
	str	r0, [r4, #4]
	bhi	.L1936
	ldr	r6, [r4]
	add	r2, r0, r6
	str	r2, [r4, #8]
	cmp	r2, #16
	bhi	.L1913
	cmp	r6, #0
	addne	r10, r4, #28
	addne	r9, r4, #11
	movne	r7, #0
	movne	r8, r7
	bne	.L1917
	b	.L1915
.L1916:
	str	r8, [r10, #4]!
	ldr	r0, [r5, #2368]
	bl	BsGet
	strb	r0, [r9, #1]!
	ldr	r6, [r4]
	cmp	r6, r7
	bls	.L1937
.L1917:
	ldr	r1, .L1943+8
	add	r7, r7, #1
	ldr	r0, [r5, #2368]
	bl	HEVC_ue_v
	mov	r1, #1
	cmp	r0, #32768
	mvn	r3, r0
	add	r8, r8, r3
	bcc	.L1916
	mov	r2, r0
	ldr	r1, .L1943+12
	mov	r0, #1
	bl	dprint_vfmw
	mvn	r0, #0
	sub	sp, fp, #40
	ldmfd	sp, {r4, r5, r6, r7, r8, r9, r10, fp, sp, pc}
.L1934:
	mov	r1, #1
	ldr	r0, [r0, #2368]
	bl	BsGet
	cmp	r0, #0
	beq	.L1890
	ldr	r7, [r9, #176]
	cmp	r7, r6
	movne	r0, #0
	beq	.L1938
.L1891:
	sub	r3, r6, #1
	rsb	r8, r0, r3
	cmp	r8, r3
	bhi	.L1939
	mov	r1, #1
	ldr	r0, [r5, #2368]
	bl	BsGet
	ldr	r1, .L1943+16
	mov	r6, r0
	ldr	r0, [r5, #2368]
	bl	HEVC_ue_v
	mov	r3, #164
	mul	r8, r3, r8
	mov	r3, r6, asl #1
	rsb	r3, r3, #1
	add	r2, r9, r8
	ldr	r2, [r2, #2172]
	cmp	r2, #16
	mla	r3, r0, r3, r3
	str	r3, [fp, #-56]
	bhi	.L1940
	add	r6, r8, #2192
	mov	r10, #0
	add	r6, r6, #4
	str	r10, [fp, #-48]
	add	r6, r9, r6
	str	r10, [fp, #-52]
	mov	r7, r10
	b	.L1900
.L1895:
	sub	r3, r0, #1
	cmp	r3, #1
	bls	.L1941
.L1896:
	add	r3, r9, r8
	add	r10, r10, #1
	add	r6, r6, #4
	ldr	r3, [r3, #2172]
	cmp	r3, r10
	bcc	.L1942
.L1900:
	mov	r1, #1
	ldr	r0, [r5, #2368]
	bl	BsGet
	cmp	r0, #0
	bne	.L1895
	mov	r1, #1
	ldr	r0, [r5, #2368]
	bl	BsGet
	mov	r0, r0, asl #1
	sub	r3, r0, #1
	cmp	r3, #1
	bhi	.L1896
.L1941:
	add	r3, r9, r8
	ldr	r2, [fp, #-56]
	add	r1, r4, r7
	add	ip, r7, #8
	ldr	r3, [r3, #2172]
	sub	r0, r0, #1
	clz	r0, r0
	add	r7, r7, #1
	cmp	r3, r10
	mov	r0, r0, lsr #5
	ldrhi	r3, [r6]
	movls	r3, #0
	add	r3, r3, r2
	str	r3, [r4, ip, asl #2]
	cmp	r3, #0
	mov	r3, r1
	strb	r0, [r1, #12]
	ldrlt	r3, [fp, #-52]
	ldrge	r3, [fp, #-48]
	addlt	r3, r3, #1
	addge	r3, r3, #1
	strlt	r3, [fp, #-52]
	strge	r3, [fp, #-48]
	b	.L1896
.L1942:
	ldr	r3, [fp, #-52]
	cmp	r7, #16
	ldr	r2, [fp, #-48]
	str	r7, [r4, #8]
	str	r3, [r4]
	str	r2, [r4, #4]
	bhi	.L1901
	cmp	r3, #16
	bhi	.L1901
	cmp	r2, #16
	bhi	.L1901
	cmp	r7, #1
	subhi	r7, r7, #1
	addhi	r8, r4, #32
	addhi	r6, r4, #12
	movhi	r5, #0
	bls	.L1907
.L1906:
	ldr	ip, [r8, #4]!
	cmp	r5, #0
	ldrb	lr, [r6, #1]!	@ zero_extendqisi2
	mov	r2, r5
	movge	r1, r8
	movge	r3, r6
	blt	.L1909
.L1905:
	ldr	r0, [r1, #-4]!
	sub	r3, r3, #1
	cmp	ip, r0
	strlt	r0, [r1, #4]
	ldrltb	r0, [r3]	@ zero_extendqisi2
	strltb	r0, [r3, #1]
	strlt	ip, [r1]
	strltb	lr, [r3]
	subs	r2, r2, #1
	bpl	.L1905
.L1909:
	add	r5, r5, #1
	cmp	r5, r7
	bne	.L1906
.L1907:
	ldr	r3, [fp, #-52]
	movs	r6, r3, lsr #1
	beq	.L1904
	ldr	r3, [fp, #-52]
	add	r0, r4, #28
	mov	r1, #0
	add	r2, r3, #7
	add	r3, r3, #11
	add	r3, r4, r3
	mov	ip, r0
	add	r2, r4, r2, lsl #2
	add	r4, r4, #12
.L1910:
	ldr	r7, [r2]
	add	r1, r1, #1
	ldr	r5, [ip, #4]!
	cmp	r1, r6
	ldrb	lr, [r4]	@ zero_extendqisi2
	str	r7, [r0, #4]!
	ldrb	r7, [r3]	@ zero_extendqisi2
	strb	r7, [r4], #1
	str	r5, [r2], #-4
	strb	lr, [r3], #-1
	bne	.L1910
.L1904:
	mov	r0, #0
.L1892:
	sub	sp, fp, #40
	ldmfd	sp, {r4, r5, r6, r7, r8, r9, r10, fp, sp, pc}
.L1937:
	ldr	r2, [r4, #8]
.L1915:
	cmp	r2, r6
	bls	.L1904
	add	r8, r6, #7
	add	r9, r6, #11
	add	r9, r4, r9
	mov	r7, #0
	add	r8, r4, r8, lsl #2
.L1918:
	ldr	r1, .L1943+20
	add	r6, r6, #1
	ldr	r0, [r5, #2368]
	bl	HEVC_ue_v
	mov	r1, #1
	add	r0, r0, r1
	add	r7, r7, r0
	str	r7, [r8, #4]!
	ldr	r0, [r5, #2368]
	bl	BsGet
	strb	r0, [r9, #1]!
	ldr	r3, [r4, #8]
	cmp	r3, r6
	bhi	.L1918
	b	.L1904
.L1938:
	ldr	r1, .L1943+24
	ldr	r0, [r5, #2368]
	bl	HEVC_ue_v
	add	r2, r0, #1
	cmp	r7, r2
	bcs	.L1891
	mov	r3, r7
	ldr	r1, .L1943+28
	mov	r0, #1
	bl	dprint_vfmw
	mvn	r0, #0
	b	.L1892
.L1901:
	ldr	r1, .L1943+32
	mov	r0, #1
	bl	dprint_vfmw
	mvn	r0, #0
	b	.L1892
.L1936:
	ldr	r2, [r4]
	mov	r0, #1
	ldr	r1, .L1943+36
	bl	dprint_vfmw
	mvn	r0, #0
	b	.L1892
.L1939:
	mov	r2, r8
	ldr	r1, .L1943+40
	mov	r0, #1
	bl	dprint_vfmw
	mvn	r0, #0
	b	.L1892
.L1940:
	ldr	r1, .L1943+44
	mov	r0, #1
	bl	dprint_vfmw
	mvn	r0, #0
	b	.L1892
.L1935:
	mov	r2, r0
	ldr	r1, .L1943+48
	mov	r0, #1
	bl	dprint_vfmw
	mvn	r0, #0
	b	.L1892
.L1913:
	mov	r3, #16
	ldr	r1, .L1943+52
	mov	r0, #1
	bl	dprint_vfmw
	mvn	r0, #0
	b	.L1892
.L1944:
	.align	2
.L1943:
	.word	.LC176
	.word	.LC178
	.word	.LC181
	.word	.LC182
	.word	.LC173
	.word	.LC183
	.word	.LC170
	.word	.LC171
	.word	.LC175
	.word	.LC179
	.word	.LC172
	.word	.LC174
	.word	.LC177
	.word	.LC180
	UNWIND(.fnend)
	.size	HEVC_DecShortTermRefPicSet, .-HEVC_DecShortTermRefPicSet
	.align	2
	.global	HEVC_DecHrdParam
	.type	HEVC_DecHrdParam, %function
HEVC_DecHrdParam:
	UNWIND(.fnstart)
	@ args = 0, pretend = 0, frame = 0
	@ frame_needed = 1, uses_anonymous_args = 0
	UNWIND(.movsp ip)
	mov	ip, sp
	stmfd	sp!, {r3, r4, r5, r6, r7, r8, r9, r10, fp, ip, lr, pc}
	UNWIND(.pad #4)
	UNWIND(.save {r3, r4, r5, r6, r7, r8, r9, r10, fp, ip, lr})
	UNWIND(.setfp fp, ip, #-4)
	sub	fp, ip, #4
	cmp	r1, #0
	cmpne	r0, #0
	mov	r8, r3
	mov	r6, r0
	mov	r9, r1
	moveq	ip, #1
	movne	ip, #0
	beq	.L1967
	cmp	r2, #0
	strb	ip, [r1, #2]
	bne	.L1994
.L1950:
	add	r5, r9, #24
	mov	r7, #0
.L1962:
	mov	r1, #1
	ldr	r0, [r6, #2368]
	bl	BsGet
	uxtb	r4, r0
	cmp	r4, #0
	movne	r3, #0
	strne	r3, [r5]
	beq	.L1995
.L1965:
	ldr	r1, .L2000
	ldr	r0, [r6, #2368]
	bl	HEVC_ue_v
.L1953:
	ldr	r1, .L2000+4
	ldr	r0, [r6, #2368]
	bl	HEVC_ue_v
	mov	r2, r0
	str	r0, [r5]
.L1954:
	cmp	r2, #31
	bhi	.L1996
.L1955:
	mov	r4, #0
.L1966:
	cmp	r4, #0
	beq	.L1997
	cmp	r4, #1
	beq	.L1992
.L1961:
	add	r4, r4, #1
	cmp	r4, #2
	bne	.L1966
.L1960:
	add	r7, r7, #1
	add	r5, r5, #4
	cmp	r8, r7
	bcs	.L1962
	mov	r0, #0
	ldmfd	sp, {r3, r4, r5, r6, r7, r8, r9, r10, fp, sp, pc}
.L1996:
	ldr	r1, .L2000+8
	mov	r0, #1
	bl	dprint_vfmw
	mov	r3, #0
	str	r3, [r5]
	b	.L1955
.L1995:
	mov	r1, #1
	ldr	r0, [r6, #2368]
	bl	BsGet
	str	r4, [r5]
	tst	r0, #255
	bne	.L1965
	mov	r1, #1
	ldr	r0, [r6, #2368]
	bl	BsGet
	tst	r0, #255
	beq	.L1953
	ldr	r2, [r5]
	b	.L1954
.L1994:
	mov	r1, #1
	ldr	r0, [r0, #2368]
	bl	BsGet
	mov	r1, #1
	strb	r0, [r9]
	ldr	r0, [r6, #2368]
	bl	BsGet
	strb	r0, [r9, #1]
	ldrh	r3, [r9]
	cmp	r3, #0
	beq	.L1950
	mov	r1, #1
	ldr	r0, [r6, #2368]
	bl	BsGet
	uxtb	r0, r0
	strb	r0, [r9, #2]
	cmp	r0, #0
	bne	.L1998
.L1948:
	mov	r1, #4
	ldr	r0, [r6, #2368]
	bl	BsGet
	mov	r1, #4
	ldr	r0, [r6, #2368]
	bl	BsGet
	ldrb	r3, [r9, #2]	@ zero_extendqisi2
	cmp	r3, #0
	bne	.L1999
.L1949:
	mov	r1, #5
	ldr	r0, [r6, #2368]
	bl	BsGet
	mov	r1, #5
	str	r0, [r9, #12]
	ldr	r0, [r6, #2368]
	bl	BsGet
	mov	r1, #5
	str	r0, [r9, #16]
	ldr	r0, [r6, #2368]
	bl	BsGet
	str	r0, [r9, #20]
	b	.L1950
.L1967:
	mvn	r0, #0
	ldmfd	sp, {r3, r4, r5, r6, r7, r8, r9, r10, fp, sp, pc}
.L1999:
	mov	r1, #4
	ldr	r0, [r6, #2368]
	bl	BsGet
	b	.L1949
.L1998:
	mov	r1, #8
	ldr	r0, [r6, #2368]
	bl	BsGet
	mov	r1, #5
	ldr	r0, [r6, #2368]
	bl	BsGet
	mov	r1, #1
	str	r0, [r9, #4]
	ldr	r0, [r6, #2368]
	bl	BsGet
	mov	r1, #5
	strb	r0, [r9, #3]
	ldr	r0, [r6, #2368]
	bl	BsGet
	str	r0, [r9, #8]
	b	.L1948
.L1997:
	ldrb	r3, [r9]	@ zero_extendqisi2
	cmp	r3, #0
	bne	.L1969
	mov	r4, #1
.L1992:
	ldrb	r3, [r9, #1]	@ zero_extendqisi2
	cmp	r3, #0
	beq	.L1960
.L1969:
	mov	r10, #0
	b	.L1964
.L1963:
	mov	r1, #1
	ldr	r0, [r6, #2368]
	bl	BsGet
	ldr	r3, [r5]
	cmp	r3, r10
	bcc	.L1961
.L1964:
	ldr	r1, .L2000+12
	add	r10, r10, #1
	ldr	r0, [r6, #2368]
	bl	HEVC_ue_v
	ldr	r1, .L2000+16
	ldr	r0, [r6, #2368]
	bl	HEVC_ue_v
	ldrb	r3, [r9, #2]	@ zero_extendqisi2
	cmp	r3, #0
	beq	.L1963
	ldr	r1, .L2000+20
	ldr	r0, [r6, #2368]
	bl	HEVC_ue_v
	ldr	r1, .L2000+24
	ldr	r0, [r6, #2368]
	bl	HEVC_ue_v
	b	.L1963
.L2001:
	.align	2
.L2000:
	.word	.LC184
	.word	.LC185
	.word	.LC186
	.word	.LC187
	.word	.LC188
	.word	.LC189
	.word	.LC190
	UNWIND(.fnend)
	.size	HEVC_DecHrdParam, .-HEVC_DecHrdParam
	.align	2
	.global	HEVC_ProcessVPS
	.type	HEVC_ProcessVPS, %function
HEVC_ProcessVPS:
	UNWIND(.fnstart)
	@ args = 0, pretend = 0, frame = 56
	@ frame_needed = 1, uses_anonymous_args = 0
	UNWIND(.movsp ip)
	mov	ip, sp
	stmfd	sp!, {r4, r5, r6, r7, r8, r9, r10, fp, ip, lr, pc}
	UNWIND(.pad #4)
	UNWIND(.save {r4, r5, r6, r7, r8, r9, r10, fp, ip, lr})
	UNWIND(.setfp fp, ip, #-4)
	sub	fp, ip, #4
	UNWIND(.pad #60)
	sub	sp, sp, #60
	mov	r5, r0
	mov	r6, r1
	ldr	r0, [r0, #2368]
	mov	r1, #1
	bl	BsGet
	mov	r1, #1
	strb	r0, [r6, #3]
	ldr	r0, [r5, #2368]
	bl	BsGet
	uxtb	r2, r0
	cmp	r2, #1
	beq	.L2003
	ldr	r1, .L2054
	mov	r0, #1
	bl	dprint_vfmw
.L2003:
	mov	r1, #6
	ldr	r0, [r5, #2368]
	bl	BsGet
	cmp	r0, #63
	str	r0, [r6, #8]
	bhi	.L2047
	mov	r1, #3
	ldr	r0, [r5, #2368]
	bl	BsGet
	cmp	r0, #7
	mov	r7, r0
	bhi	.L2048
	str	r0, [r6, #12]
	mov	r1, #1
	ldr	r0, [r5, #2368]
	bl	BsGet
	mov	r1, #16
	strb	r0, [r6, #1]
	ldr	r0, [r5, #2368]
	bl	BsGet
	movw	r3, #65535
	cmp	r0, r3
	bne	.L2049
	mov	r3, r7
	mov	r2, #1
	add	r1, r6, #124
	mov	r0, r5
	bl	HEVC_DecPTL
	subs	r4, r0, #0
	bne	.L2050
	mov	r1, #1
	ldr	r0, [r5, #2368]
	bl	BsGet
	cmp	r7, #0
	addge	r8, r6, #24
	addge	r9, r7, #1
	uxtb	r10, r0
	bge	.L2015
	b	.L2013
.L2012:
	add	r4, r4, #1
	cmp	r4, r9
	beq	.L2013
.L2015:
	ldr	r1, .L2054+4
	ldr	r0, [r5, #2368]
	bl	HEVC_ue_v
	ldr	r1, .L2054+8
	add	r0, r0, #1
	str	r0, [r8, #4]!
	ldr	r0, [r5, #2368]
	bl	HEVC_ue_v
	ldr	r1, .L2054+12
	str	r0, [r8, #32]
	ldr	r0, [r5, #2368]
	bl	HEVC_ue_v
	cmp	r10, #0
	str	r0, [r8, #64]
	bne	.L2012
	add	r2, r4, #1
	cmp	r7, r2
	blt	.L2013
	add	r3, r4, #7
	add	r3, r6, r3, lsl #2
.L2014:
	ldr	r1, [r6, #28]
	add	r2, r2, #1
	cmp	r9, r2
	str	r1, [r3, #4]!
	ldr	r1, [r6, #60]
	str	r1, [r3, #32]
	ldr	r1, [r6, #92]
	str	r1, [r3, #64]
	bne	.L2014
.L2013:
	mov	r1, #6
	ldr	r0, [r5, #2368]
	bl	BsGet
	ldr	r1, .L2054+16
	str	r0, [r6, #16]
	ldr	r0, [r5, #2368]
	bl	HEVC_ue_v
	cmp	r0, #1024
	str	r0, [r6, #20]
	bcs	.L2051
	cmp	r0, #0
	movgt	r8, #1
	ble	.L2017
.L2019:
	mov	r4, #0
.L2018:
	mov	r1, #1
	ldr	r0, [r5, #2368]
	bl	BsGet
	ldr	r3, [r6, #16]
	add	r4, r4, #1
	cmp	r4, r3
	bls	.L2018
	ldr	r3, [r6, #20]
	add	r8, r8, #1
	cmp	r3, r8
	bge	.L2019
.L2017:
	mov	r1, #1
	ldr	r0, [r5, #2368]
	bl	BsGet
	tst	r0, #255
	beq	.L2026
	mov	r1, #32
	ldr	r0, [r5, #2368]
	bl	BsGet
	mov	r1, #32
	ldr	r0, [r5, #2368]
	bl	BsGet
	mov	r1, #1
	ldr	r0, [r5, #2368]
	bl	BsGet
	tst	r0, #255
	bne	.L2052
.L2023:
	ldr	r1, .L2054+20
	ldr	r0, [r5, #2368]
	bl	HEVC_ue_v
	cmp	r0, #1024
	str	r0, [r6, #24]
	bhi	.L2024
	cmp	r0, #0
	ble	.L2026
	ldr	r1, .L2054+24
	mov	r4, #0
	ldr	r0, [r5, #2368]
	bl	HEVC_ue_v
	mov	r0, #1
.L2031:
	uxtb	r2, r0
	sub	r1, fp, #100
	mov	r3, r7
	mov	r0, r5
	bl	HEVC_DecHrdParam
	add	r4, r4, #1
	ldr	r1, .L2054+24
	cmp	r0, #0
	bne	.L2053
	ldr	r3, [r6, #24]
	cmp	r3, r4
	ble	.L2026
	ldr	r0, [r5, #2368]
	bl	HEVC_ue_v
	cmp	r4, #0
	mov	r0, #1
	beq	.L2031
	mov	r1, r0
	ldr	r0, [r5, #2368]
	bl	BsGet
	b	.L2031
.L2026:
	mov	r1, #1
	ldr	r0, [r5, #2368]
	bl	BsGet
	tst	r0, #255
	bne	.L2043
.L2022:
	mov	r0, #0
.L2044:
	sub	sp, fp, #40
	ldmfd	sp, {r4, r5, r6, r7, r8, r9, r10, fp, sp, pc}
.L2030:
	ldr	r0, [r5, #2368]
	bl	BsGet
.L2043:
	mov	r0, r5
	bl	HEVC_MoreRbspData
	mov	r1, #1
	cmp	r0, #0
	bne	.L2030
	b	.L2022
.L2053:
	ldr	r1, .L2054+28
	mov	r0, #1
	bl	dprint_vfmw
	mvn	r0, #0
	sub	sp, fp, #40
	ldmfd	sp, {r4, r5, r6, r7, r8, r9, r10, fp, sp, pc}
.L2052:
	ldr	r1, .L2054+32
	ldr	r0, [r5, #2368]
	bl	HEVC_ue_v
	b	.L2023
.L2049:
	ldr	r1, .L2054+36
	mov	r0, #1
	bl	dprint_vfmw
	mvn	r0, #0
	b	.L2044
.L2047:
	mov	r2, r0
	ldr	r1, .L2054+40
	mov	r0, #1
	bl	dprint_vfmw
	mvn	r0, #0
	b	.L2044
.L2050:
	ldr	r1, .L2054+44
	mov	r0, #1
	bl	dprint_vfmw
	mvn	r0, #0
	b	.L2044
.L2048:
	mov	r2, r0
	ldr	r1, .L2054+48
	mov	r0, #1
	bl	dprint_vfmw
	mvn	r0, #0
	b	.L2044
.L2051:
	mov	r2, r0
	mov	r3, #1024
	ldr	r1, .L2054+52
	mov	r0, #1
	bl	dprint_vfmw
	mvn	r0, #0
	b	.L2044
.L2024:
	mov	r2, r0
	mov	r3, #1024
	ldr	r1, .L2054+56
	mov	r0, #1
	bl	dprint_vfmw
	mvn	r0, #0
	b	.L2044
.L2055:
	.align	2
.L2054:
	.word	.LC191
	.word	.LC197
	.word	.LC198
	.word	.LC199
	.word	.LC196
	.word	.LC202
	.word	.LC204
	.word	.LC205
	.word	.LC201
	.word	.LC194
	.word	.LC192
	.word	.LC195
	.word	.LC193
	.word	.LC200
	.word	.LC203
	UNWIND(.fnend)
	.size	HEVC_ProcessVPS, .-HEVC_ProcessVPS
	.align	2
	.global	HEVC_DecVPS
	.type	HEVC_DecVPS, %function
HEVC_DecVPS:
	UNWIND(.fnstart)
	@ args = 0, pretend = 0, frame = 0
	@ frame_needed = 1, uses_anonymous_args = 0
	UNWIND(.movsp ip)
	mov	ip, sp
	stmfd	sp!, {r4, r5, r6, r7, r8, r9, fp, ip, lr, pc}
	UNWIND(.pad #4)
	UNWIND(.save {r4, r5, r6, r7, r8, r9, fp, ip, lr})
	UNWIND(.setfp fp, ip, #-4)
	sub	fp, ip, #4
	ldr	r5, .L2068
	mov	r6, r0
	ldr	r0, [r5]
	cmp	r0, #0
	beq	.L2063
	mov	r1, #4
	ldr	r0, [r6, #2368]
	bl	BsGet
	cmp	r0, #15
	mov	r7, r0
	bhi	.L2064
	ldr	r3, [r6, #2372]
	mov	r4, r0, asl #7
	add	r4, r4, r0, lsl #2
	add	r2, r3, r4
	ldrb	r9, [r3, r4]	@ zero_extendqisi2
	cmp	r9, #0
	bne	.L2065
	str	r0, [r2, #4]
	mov	r0, r6
	ldr	r1, [r6, #2372]
	add	r1, r1, r4
	bl	HEVC_ProcessVPS
	subs	r8, r0, #0
	bne	.L2066
	ldr	r3, [r6, #2372]
	mov	r2, #1
	add	r3, r3, r4
	strb	r2, [r3, #2]
	ldr	r3, [r6, #2372]
	strb	r2, [r3, r4]
.L2058:
	mov	r0, r8
	ldmfd	sp, {r4, r5, r6, r7, r8, r9, fp, sp, pc}
.L2065:
	ldr	r5, [r5]
	mov	r2, #132
	ldr	r9, .L2068+4
	mov	r1, #0
	add	r5, r5, #458752
	ldr	r3, [r9, #48]
	mov	r0, r5
	blx	r3
	str	r7, [r5, #4]
	mov	r1, r5
	mov	r0, r6
	bl	HEVC_ProcessVPS
	subs	r8, r0, #0
	bne	.L2067
	mov	r3, #1
	strb	r3, [r5, #2]
	strb	r3, [r5]
	mov	r1, r5
	ldr	r0, [r6, #2372]
	mov	r2, #132
	ldr	r3, [r9, #56]
	add	r0, r0, r4
	blx	r3
	mov	r0, r8
	ldmfd	sp, {r4, r5, r6, r7, r8, r9, fp, sp, pc}
.L2067:
	mov	r2, r7
	ldr	r1, .L2068+8
	mov	r0, #1
	mvn	r8, #0
	bl	dprint_vfmw
	b	.L2058
.L2064:
	ldr	r1, .L2068+12
	mov	r0, #1
	bl	dprint_vfmw
	mvn	r8, #0
	b	.L2058
.L2066:
	mov	r2, r7
	ldr	r1, .L2068+16
	mov	r0, #1
	mvn	r8, #0
	bl	dprint_vfmw
	ldr	r3, [r6, #2372]
	mov	r2, #1
	add	r3, r3, r4
	strb	r2, [r3, #2]
	ldr	r3, [r6, #2372]
	strb	r9, [r3, r4]
	b	.L2058
.L2063:
	ldr	r2, .L2068+20
	mvn	r8, #0
	ldr	r1, .L2068+24
	bl	dprint_vfmw
	b	.L2058
.L2069:
	.align	2
.L2068:
	.word	.LANCHOR1
	.word	vfmw_Osal_Func_Ptr_S
	.word	.LC207
	.word	.LC206
	.word	.LC208
	.word	.LANCHOR0+512
	.word	.LC61
	UNWIND(.fnend)
	.size	HEVC_DecVPS, .-HEVC_DecVPS
	.align	2
	.global	HEVC_DecVuiParam
	.type	HEVC_DecVuiParam, %function
HEVC_DecVuiParam:
	UNWIND(.fnstart)
	@ args = 0, pretend = 0, frame = 0
	@ frame_needed = 1, uses_anonymous_args = 0
	UNWIND(.movsp ip)
	mov	ip, sp
	stmfd	sp!, {r4, r5, r6, r7, fp, ip, lr, pc}
	UNWIND(.pad #4)
	UNWIND(.save {r4, r5, r6, r7, fp, ip, lr})
	UNWIND(.setfp fp, ip, #-4)
	sub	fp, ip, #4
	mov	r4, r0
	mov	r5, r1
	ldr	r0, [r0, #2368]
	mov	r1, #1
	mov	r6, r2
	bl	BsGet
	tst	r0, #255
	bne	.L2114
.L2072:
	mov	r1, #1
	ldr	r0, [r4, #2368]
	bl	BsGet
	tst	r0, #255
	bne	.L2115
.L2074:
	mov	r1, #1
	ldr	r0, [r4, #2368]
	bl	BsGet
	tst	r0, #255
	bne	.L2116
.L2076:
	mov	r1, #1
	ldr	r0, [r4, #2368]
	bl	BsGet
	tst	r0, #255
	bne	.L2117
.L2078:
	mov	r1, #1
	ldr	r0, [r4, #2368]
	bl	BsGet
	mov	r1, #1
	ldr	r0, [r4, #2368]
	bl	BsGet
	mov	r1, #1
	strb	r0, [r5, #3]
	ldr	r0, [r4, #2368]
	bl	BsGet
	mov	r1, #1
	strb	r0, [r5, #2]
	ldr	r0, [r4, #2368]
	bl	BsGet
	tst	r0, #255
	beq	.L2079
	ldr	r1, .L2123
	ldr	r0, [r4, #2368]
	bl	HEVC_ue_v
	ldr	r3, [r6, #60]
	cmp	r3, #3
	bhi	.L2118
	ldr	r1, .L2123+4
	ldr	r0, [r4, #2368]
	bl	HEVC_ue_v
	ldr	r1, .L2123+8
	ldr	r0, [r4, #2368]
	bl	HEVC_ue_v
	ldr	r1, .L2123+12
	ldr	r0, [r4, #2368]
	bl	HEVC_ue_v
.L2079:
	mov	r1, #1
	ldr	r0, [r4, #2368]
	bl	BsGet
	tst	r0, #255
	beq	.L2082
	mov	r1, #32
	ldr	r0, [r4, #2368]
	bl	BsGet
	mov	r1, #32
	str	r0, [r5, #36]
	ldr	r0, [r4, #2368]
	bl	BsGet
	ldr	r2, [r5, #36]
	cmp	r2, #0
	str	r0, [r5, #40]
	bne	.L2119
.L2083:
	mov	r1, #1
	ldr	r0, [r4, #2368]
	bl	BsGet
	tst	r0, #255
	bne	.L2120
.L2084:
	mov	r1, #1
	ldr	r0, [r4, #2368]
	bl	BsGet
	tst	r0, #255
	bne	.L2121
.L2082:
	mov	r1, #1
	ldr	r0, [r4, #2368]
	bl	BsGet
	uxtb	r0, r0
	cmp	r0, #0
	ldmeqfd	sp, {r4, r5, r6, r7, fp, sp, pc}
	mov	r1, #1
	ldr	r0, [r4, #2368]
	bl	BsGet
	mov	r1, #1
	ldr	r0, [r4, #2368]
	bl	BsGet
	mov	r1, #1
	ldr	r0, [r4, #2368]
	bl	BsGet
	ldr	r1, .L2123+16
	ldr	r0, [r4, #2368]
	bl	HEVC_ue_v
	cmp	r0, #4096
	bcs	.L2122
.L2085:
	ldr	r1, .L2123+20
	ldr	r0, [r4, #2368]
	bl	HEVC_ue_v
	ldr	r1, .L2123+24
	ldr	r0, [r4, #2368]
	bl	HEVC_ue_v
	ldr	r1, .L2123+28
	ldr	r0, [r4, #2368]
	bl	HEVC_ue_v
	ldr	r0, [r4, #2368]
	ldr	r1, .L2123+32
	bl	HEVC_ue_v
	mov	r0, #0
	ldmfd	sp, {r4, r5, r6, r7, fp, sp, pc}
.L2114:
	mov	r1, #8
	ldr	r0, [r4, #2368]
	bl	BsGet
	cmp	r0, #255
	str	r0, [r5, #8]
	bne	.L2072
	mov	r1, #16
	ldr	r0, [r4, #2368]
	bl	BsGet
	mov	r1, #16
	str	r0, [r5, #12]
	ldr	r0, [r4, #2368]
	bl	BsGet
	str	r0, [r5, #16]
	b	.L2072
.L2117:
	ldr	r1, .L2123+36
	ldr	r0, [r4, #2368]
	bl	HEVC_ue_v
	ldr	r1, .L2123+40
	ldr	r0, [r4, #2368]
	bl	HEVC_ue_v
	b	.L2078
.L2116:
	mov	r1, #3
	ldr	r0, [r4, #2368]
	bl	BsGet
	mov	r1, #1
	str	r0, [r5, #20]
	ldr	r0, [r4, #2368]
	bl	BsGet
	mov	r1, #1
	strb	r0, [r5]
	ldr	r0, [r4, #2368]
	bl	BsGet
	uxtb	r0, r0
	strb	r0, [r5, #1]
	cmp	r0, #0
	beq	.L2076
	mov	r1, #8
	ldr	r0, [r4, #2368]
	bl	BsGet
	mov	r1, #8
	str	r0, [r5, #24]
	ldr	r0, [r4, #2368]
	bl	BsGet
	mov	r1, #8
	str	r0, [r5, #28]
	ldr	r0, [r4, #2368]
	bl	BsGet
	str	r0, [r5, #32]
	b	.L2076
.L2115:
	mov	r1, #1
	ldr	r0, [r4, #2368]
	bl	BsGet
	b	.L2074
.L2121:
	ldr	r3, [r6, #52]
	add	r1, r5, #44
	mov	r2, #1
	mov	r0, r4
	bl	HEVC_DecHrdParam
	cmp	r0, #0
	beq	.L2082
	ldr	r1, .L2123+44
	mov	r0, #1
	bl	dprint_vfmw
	mvn	r0, #0
	ldmfd	sp, {r4, r5, r6, r7, fp, sp, pc}
.L2120:
	ldr	r1, .L2123+48
	ldr	r0, [r4, #2368]
	bl	HEVC_ue_v
	b	.L2084
.L2119:
	ldr	r3, .L2123+52
	movw	r1, #10000
	umull	r0, r1, r0, r1
	ldr	r3, [r3, #244]
	blx	r3
	movw	r3, #52429
	movt	r3, 52428
	add	r0, r0, #5
	umull	r0, r1, r0, r3
	mov	r3, r1, lsr #3
	str	r3, [r4, #144]
	b	.L2083
.L2122:
	ldr	r1, .L2123+56
	mov	r0, #1
	bl	dprint_vfmw
	b	.L2085
.L2118:
	ldr	r1, .L2123+60
	mov	r0, #1
	bl	dprint_vfmw
	mvn	r0, #0
	ldmfd	sp, {r4, r5, r6, r7, fp, sp, pc}
.L2124:
	.align	2
.L2123:
	.word	.LC211
	.word	.LC213
	.word	.LC214
	.word	.LC215
	.word	.LC218
	.word	.LC220
	.word	.LC221
	.word	.LC222
	.word	.LC223
	.word	.LC209
	.word	.LC210
	.word	.LC217
	.word	.LC216
	.word	vfmw_Osal_Func_Ptr_S
	.word	.LC219
	.word	.LC212
	UNWIND(.fnend)
	.size	HEVC_DecVuiParam, .-HEVC_DecVuiParam
	.align	2
	.global	HEVC_se_v
	.type	HEVC_se_v, %function
HEVC_se_v:
	UNWIND(.fnstart)
	@ args = 0, pretend = 0, frame = 0
	@ frame_needed = 1, uses_anonymous_args = 0
	UNWIND(.movsp ip)
	mov	ip, sp
	stmfd	sp!, {r4, r5, r6, r7, fp, ip, lr, pc}
	UNWIND(.pad #4)
	UNWIND(.save {r4, r5, r6, r7, fp, ip, lr})
	UNWIND(.setfp fp, ip, #-4)
	sub	fp, ip, #4
	mov	r1, #32
	mov	r5, r0
	bl	BsShow
	bl	ZerosMS_32
	cmp	r0, #31
	bls	.L2130
	mvn	r0, #-2147483648
	ldmfd	sp, {r4, r5, r6, r7, fp, sp, pc}
.L2130:
	add	r6, r0, #1
	mov	r1, r0
	mov	r0, r5
	bl	BsSkip
	mov	r1, r6
	mov	r0, r5
	bl	BsShow
	mov	r1, r6
	sub	r0, r0, #1
	tst	r0, #1
	mov	r0, r0, asr #1
	addne	r4, r0, #1
	rsbeq	r4, r0, #0
	mov	r0, r5
	bl	BsSkip
	mov	r0, r4
	ldmfd	sp, {r4, r5, r6, r7, fp, sp, pc}
	UNWIND(.fnend)
	.size	HEVC_se_v, .-HEVC_se_v
	.align	2
	.global	HEVC_Sei_Structure_Of_Pictures_Info
	.type	HEVC_Sei_Structure_Of_Pictures_Info, %function
HEVC_Sei_Structure_Of_Pictures_Info:
	UNWIND(.fnstart)
	@ args = 0, pretend = 0, frame = 0
	@ frame_needed = 1, uses_anonymous_args = 0
	UNWIND(.movsp ip)
	mov	ip, sp
	stmfd	sp!, {r4, r5, r6, r7, fp, ip, lr, pc}
	UNWIND(.pad #4)
	UNWIND(.save {r4, r5, r6, r7, fp, ip, lr})
	UNWIND(.setfp fp, ip, #-4)
	sub	fp, ip, #4
	ldr	r1, .L2143
	mov	r6, r0
	ldr	r0, [r0, #2368]
	bl	HEVC_ue_v
	ldr	r0, [r6, #2368]
	ldr	r1, .L2143+4
	bl	HEVC_ue_v
	cmp	r0, #1024
	mov	r7, r0
	bhi	.L2132
	cmp	r0, #0
	movne	r4, #0
	beq	.L2138
.L2137:
	mov	r1, #6
	ldr	r0, [r6, #2368]
	bl	BsGet
	mov	r1, #3
	mov	r5, r0
	ldr	r0, [r6, #2368]
	sub	r5, r5, #19
	bl	BsGet
	cmp	r5, #1
	ldr	r1, .L2143+8
	bls	.L2135
	ldr	r0, [r6, #2368]
	bl	HEVC_ue_v
.L2135:
	cmp	r4, #0
	ldr	r1, .L2143+12
	add	r4, r4, #1
	beq	.L2136
	ldr	r0, [r6, #2368]
	bl	HEVC_se_v
.L2136:
	cmp	r4, r7
	bne	.L2137
.L2138:
	ldr	r0, [r6, #2368]
	bl	BsToNextByte
	mov	r0, #0
	ldmfd	sp, {r4, r5, r6, r7, fp, sp, pc}
.L2132:
	ldr	r1, .L2143+16
	mov	r0, #1
	bl	dprint_vfmw
	mvn	r0, #0
	ldmfd	sp, {r4, r5, r6, r7, fp, sp, pc}
.L2144:
	.align	2
.L2143:
	.word	.LC224
	.word	.LC225
	.word	.LC227
	.word	.LC228
	.word	.LC226
	UNWIND(.fnend)
	.size	HEVC_Sei_Structure_Of_Pictures_Info, .-HEVC_Sei_Structure_Of_Pictures_Info
	.align	2
	.global	HEVC_Sei_Recovery_Point
	.type	HEVC_Sei_Recovery_Point, %function
HEVC_Sei_Recovery_Point:
	UNWIND(.fnstart)
	@ args = 0, pretend = 0, frame = 0
	@ frame_needed = 1, uses_anonymous_args = 0
	UNWIND(.movsp ip)
	mov	ip, sp
	stmfd	sp!, {r4, r5, fp, ip, lr, pc}
	UNWIND(.pad #4)
	UNWIND(.save {r4, r5, fp, ip, lr})
	UNWIND(.setfp fp, ip, #-4)
	sub	fp, ip, #4
	cmp	r1, #0
	cmpne	r0, #0
	mov	r4, r0
	moveq	r5, #1
	movne	r5, #0
	beq	.L2147
	ldr	r1, .L2148
	ldr	r0, [r0, #2368]
	bl	HEVC_se_v
	mov	r1, #1
	ldr	r0, [r4, #2368]
	bl	BsGet
	mov	r1, #1
	ldr	r0, [r4, #2368]
	bl	BsGet
	ldr	r0, [r4, #2368]
	bl	BsToNextByte
	mov	r0, r5
	ldmfd	sp, {r4, r5, fp, sp, pc}
.L2147:
	mvn	r0, #0
	ldmfd	sp, {r4, r5, fp, sp, pc}
.L2149:
	.align	2
.L2148:
	.word	.LC229
	UNWIND(.fnend)
	.size	HEVC_Sei_Recovery_Point, .-HEVC_Sei_Recovery_Point
	.align	2
	.global	HEVC_Sei_Color_Remapping_Info
	.type	HEVC_Sei_Color_Remapping_Info, %function
HEVC_Sei_Color_Remapping_Info:
	UNWIND(.fnstart)
	@ args = 0, pretend = 0, frame = 0
	@ frame_needed = 1, uses_anonymous_args = 0
	UNWIND(.movsp ip)
	mov	ip, sp
	stmfd	sp!, {r3, r4, r5, r6, r7, r8, r9, r10, fp, ip, lr, pc}
	UNWIND(.pad #4)
	UNWIND(.save {r3, r4, r5, r6, r7, r8, r9, r10, fp, ip, lr})
	UNWIND(.setfp fp, ip, #-4)
	sub	fp, ip, #4
	cmp	r1, #0
	cmpne	r0, #0
	mov	r4, r0
	mov	r8, r1
	beq	.L2167
	ldr	r1, .L2180
	ldr	r0, [r0, #2368]
	bl	HEVC_ue_v
	mov	r1, #1
	ldr	r0, [r4, #2368]
	bl	BsGet
	tst	r0, #255
	beq	.L2152
.L2165:
	mov	r3, #1
	mov	r0, #0
	strb	r3, [r8]
	ldmfd	sp, {r3, r4, r5, r6, r7, r8, r9, r10, fp, sp, pc}
.L2152:
	mov	r1, #1
	ldr	r0, [r4, #2368]
	bl	BsGet
	mov	r1, #1
	ldr	r0, [r4, #2368]
	bl	BsGet
	uxtb	r1, r0
	cmp	r1, #1
	beq	.L2177
.L2153:
	mov	r1, #8
	ldr	r0, [r4, #2368]
	bl	BsGet
	mov	r1, #8
	ldr	r0, [r4, #2368]
	mov	r7, #3
	bl	BsGet
.L2155:
	mov	r1, #8
	ldr	r0, [r4, #2368]
	bl	BsGet
	uxtb	r0, r0
	cmp	r0, #0
	beq	.L2158
	add	r6, r0, #1
	mov	r5, #0
.L2157:
	mov	r1, #16
	ldr	r0, [r4, #2368]
	bl	BsGet
	add	r5, r5, #1
	mov	r1, #16
	ldr	r0, [r4, #2368]
	bl	BsGet
	cmp	r5, r6
	bne	.L2157
.L2158:
	subs	r7, r7, #1
	bne	.L2155
	mov	r1, #1
	ldr	r0, [r4, #2368]
	bl	BsGet
	uxtb	r0, r0
	cmp	r0, #1
	beq	.L2178
.L2159:
	add	r10, r8, #42
	add	r7, r8, #39
	mov	r9, r10
.L2164:
	mov	r1, #8
	ldr	r0, [r4, #2368]
	bl	BsGet
	uxtb	r0, r0
	strb	r0, [r7, #1]!
	cmp	r0, #32
	bhi	.L2179
	cmp	r0, #0
	beq	.L2166
	mov	r6, r9
	mov	r5, #0
.L2163:
	mov	r1, #16
	ldr	r0, [r4, #2368]
	bl	BsGet
	mov	r1, #16
	add	r5, r5, #1
	strh	r0, [r6, #2]!	@ movhi
	ldr	r0, [r4, #2368]
	bl	BsGet
	strh	r0, [r6, #198]	@ movhi
	ldrb	r3, [r7]	@ zero_extendqisi2
	add	r3, r3, #1
	cmp	r3, r5
	bhi	.L2163
.L2166:
	cmp	r10, r7
	add	r9, r9, #66
	bne	.L2164
	b	.L2165
.L2167:
	mvn	r0, #0
	ldmfd	sp, {r3, r4, r5, r6, r7, r8, r9, r10, fp, sp, pc}
.L2178:
	mov	r1, #4
	ldr	r0, [r4, #2368]
	bl	BsGet
	add	r7, r8, #36
	mov	r5, r8
.L2160:
	add	r6, r5, #12
.L2161:
	ldr	r1, .L2180+4
	ldr	r0, [r4, #2368]
	bl	HEVC_se_v
	str	r0, [r5, #4]!
	cmp	r6, r5
	bne	.L2161
	cmp	r5, r7
	bne	.L2160
	b	.L2159
.L2177:
	ldr	r0, [r4, #2368]
	bl	BsGet
	mov	r1, #8
	ldr	r0, [r4, #2368]
	bl	BsGet
	mov	r1, #8
	strb	r0, [r8, #1]
	ldr	r0, [r4, #2368]
	bl	BsGet
	mov	r1, #8
	ldr	r0, [r4, #2368]
	bl	BsGet
	b	.L2153
.L2179:
	mov	r2, r0
	ldr	r1, .L2180+8
	mov	r0, #1
	bl	dprint_vfmw
	mvn	r0, #0
	ldmfd	sp, {r3, r4, r5, r6, r7, r8, r9, r10, fp, sp, pc}
.L2181:
	.align	2
.L2180:
	.word	.LC230
	.word	.LC231
	.word	.LC232
	UNWIND(.fnend)
	.size	HEVC_Sei_Color_Remapping_Info, .-HEVC_Sei_Color_Remapping_Info
	.align	2
	.global	HEVC_Sei_Payload
	.type	HEVC_Sei_Payload, %function
HEVC_Sei_Payload:
	UNWIND(.fnstart)
	@ args = 4, pretend = 0, frame = 0
	@ frame_needed = 1, uses_anonymous_args = 0
	UNWIND(.movsp ip)
	mov	ip, sp
	stmfd	sp!, {r4, r5, r6, r7, fp, ip, lr, pc}
	UNWIND(.pad #4)
	UNWIND(.save {r4, r5, r6, r7, fp, ip, lr})
	UNWIND(.setfp fp, ip, #-4)
	sub	fp, ip, #4
	clz	ip, r0
	ldr	r6, [fp, #4]
	mov	r4, r0
	mov	ip, ip, lsr #5
	cmp	r1, #0
	movne	r5, ip
	orreq	r5, ip, #1
	cmp	r5, #0
	bne	.L2208
	ldr	lr, [r0, #2388]
	ldr	lr, [lr, #16]
	cmp	lr, #39
	beq	.L2226
	cmp	r3, #5
	beq	.L2212
	cmp	r3, #132
	beq	.L2213
	cmp	r6, #0
	beq	.L2207
.L2215:
	add	r5, r5, #1
	mov	r1, #8
	ldr	r0, [r4, #2368]
	bl	BsGet
	cmp	r5, r6
	bne	.L2215
	b	.L2207
.L2212:
	add	r1, r1, #568
	mov	r2, r6
	bl	HEVC_Sei_User_Data_Unregistered
	cmp	r0, #0
	bne	.L2208
.L2207:
	mov	r1, r6
	mov	r0, r4
	bl	HEVC_Sei_More_Data_In_Payload
	cmp	r0, #0
	bne	.L2216
	mov	r0, #0
	ldmfd	sp, {r4, r5, r6, r7, fp, sp, pc}
.L2216:
	mov	r1, r6
	mov	r0, r4
	bl	HEVC_Sei_Payload_Extension_Present
	cmp	r0, #0
	bne	.L2227
.L2217:
	mov	r1, #1
	ldr	r0, [r4, #2368]
	bl	BsGet
	b	.L2218
.L2219:
	ldr	r0, [r4, #2368]
	bl	BsGet
.L2218:
	ldr	r0, [r4, #2368]
	bl	BsIsByteAligned
	mov	r1, #1
	cmp	r0, #0
	beq	.L2219
	mov	r0, #0
	ldmfd	sp, {r4, r5, r6, r7, fp, sp, pc}
.L2226:
	cmp	r3, #147
	ldrls	pc, [pc, r3, asl #2]
	b	.L2186
.L2188:
	.word	.L2187
	.word	.L2189
	.word	.L2186
	.word	.L2186
	.word	.L2190
	.word	.L2191
	.word	.L2192
	.word	.L2186
	.word	.L2186
	.word	.L2186
	.word	.L2186
	.word	.L2186
	.word	.L2186
	.word	.L2186
	.word	.L2186
	.word	.L2186
	.word	.L2186
	.word	.L2186
	.word	.L2186
	.word	.L2186
	.word	.L2186
	.word	.L2186
	.word	.L2186
	.word	.L2193
	.word	.L2186
	.word	.L2186
	.word	.L2186
	.word	.L2186
	.word	.L2186
	.word	.L2186
	.word	.L2186
	.word	.L2186
	.word	.L2186
	.word	.L2186
	.word	.L2186
	.word	.L2186
	.word	.L2186
	.word	.L2186
	.word	.L2186
	.word	.L2186
	.word	.L2186
	.word	.L2186
	.word	.L2186
	.word	.L2186
	.word	.L2186
	.word	.L2194
	.word	.L2186
	.word	.L2195
	.word	.L2186
	.word	.L2186
	.word	.L2186
	.word	.L2186
	.word	.L2186
	.word	.L2186
	.word	.L2186
	.word	.L2186
	.word	.L2186
	.word	.L2186
	.word	.L2186
	.word	.L2186
	.word	.L2186
	.word	.L2186
	.word	.L2186
	.word	.L2186
	.word	.L2186
	.word	.L2186
	.word	.L2186
	.word	.L2186
	.word	.L2186
	.word	.L2186
	.word	.L2186
	.word	.L2186
	.word	.L2186
	.word	.L2186
	.word	.L2186
	.word	.L2186
	.word	.L2186
	.word	.L2186
	.word	.L2186
	.word	.L2186
	.word	.L2186
	.word	.L2186
	.word	.L2186
	.word	.L2186
	.word	.L2186
	.word	.L2186
	.word	.L2186
	.word	.L2186
	.word	.L2186
	.word	.L2186
	.word	.L2186
	.word	.L2186
	.word	.L2186
	.word	.L2186
	.word	.L2186
	.word	.L2186
	.word	.L2186
	.word	.L2186
	.word	.L2186
	.word	.L2186
	.word	.L2186
	.word	.L2186
	.word	.L2186
	.word	.L2186
	.word	.L2186
	.word	.L2186
	.word	.L2186
	.word	.L2186
	.word	.L2186
	.word	.L2186
	.word	.L2186
	.word	.L2186
	.word	.L2186
	.word	.L2186
	.word	.L2186
	.word	.L2186
	.word	.L2186
	.word	.L2186
	.word	.L2186
	.word	.L2186
	.word	.L2186
	.word	.L2186
	.word	.L2186
	.word	.L2186
	.word	.L2186
	.word	.L2186
	.word	.L2186
	.word	.L2186
	.word	.L2196
	.word	.L2197
	.word	.L2198
	.word	.L2199
	.word	.L2186
	.word	.L2200
	.word	.L2201
	.word	.L2186
	.word	.L2186
	.word	.L2202
	.word	.L2186
	.word	.L2186
	.word	.L2186
	.word	.L2186
	.word	.L2203
	.word	.L2186
	.word	.L2204
	.word	.L2186
	.word	.L2186
	.word	.L2205
.L2213:
	add	r1, r1, #616
	add	r1, r1, #3
	bl	HEVC_Sei_Decoded_Picture_Hash
	cmp	r0, #0
	beq	.L2207
.L2208:
	mvn	r0, #0
	ldmfd	sp, {r4, r5, r6, r7, fp, sp, pc}
.L2227:
	ldr	r1, .L2228
	ldr	r0, [r4, #2368]
	bl	HEVC_ue_v
	b	.L2217
.L2205:
	add	r1, r1, #616
	add	r1, r1, #2
	bl	HEVC_Sei_HLGHDR_Comapitibility_Info
	cmp	r0, #0
	beq	.L2207
	b	.L2208
.L2187:
	add	r2, r2, #2096
	add	r2, r2, #12
	bl	HEVC_Sei_Buf_Period
	cmp	r0, #0
	beq	.L2207
	b	.L2208
.L2189:
	add	r2, r2, #2064
	add	r1, r1, #8
	bl	HEVC_Sei_Pic_Timming
	cmp	r0, #0
	beq	.L2207
	b	.L2208
.L2190:
	add	r1, r1, #56
	mov	r2, r6
	bl	HEVC_Sei_User_Data_Registered_Itu_T_T35
	cmp	r0, #0
	beq	.L2207
	b	.L2208
.L2191:
	add	r1, r1, #568
	mov	r2, r6
	bl	HEVC_Sei_User_Data_Unregistered
	cmp	r0, #0
	beq	.L2207
	b	.L2208
.L2192:
	add	r1, r1, #568
	bl	HEVC_Sei_Recovery_Point
	cmp	r0, #0
	beq	.L2207
	b	.L2208
.L2193:
	add	r1, r1, #616
	add	r1, r1, #3
	bl	HEVC_Sei_Tone_Mapping_Info
	cmp	r0, #0
	beq	.L2207
	b	.L2208
.L2194:
	add	r1, r1, #568
	bl	HEVC_Sei_Frame_Packing_Arrangement
	cmp	r0, #0
	beq	.L2207
	b	.L2208
.L2195:
	add	r1, r1, #568
	bl	HEVC_Sei_Display_Orientation
	cmp	r0, #0
	beq	.L2207
	b	.L2208
.L2196:
	add	r1, r1, #616
	mov	r2, r6
	add	r1, r1, #3
	bl	HEVC_Sei_Structure_Of_Pictures_Info
	cmp	r0, #0
	beq	.L2207
	b	.L2208
.L2197:
	add	r1, r1, #568
	bl	HEVC_Sei_Active_Param_sets
	cmp	r0, #0
	beq	.L2207
	b	.L2208
.L2198:
	add	r2, r2, #2096
	add	r1, r1, #568
	add	r2, r2, #12
	bl	HEVC_Sei_Dec_Unit_Info
	cmp	r0, #0
	beq	.L2207
	b	.L2208
.L2199:
	add	r1, r1, #568
	bl	HEVC_Sei_Temporal_Sub_Layer_Zero_Index
	cmp	r0, #0
	beq	.L2207
	b	.L2208
.L2200:
	mov	r3, r6
	bl	HEVC_Sei_Scalable_Nesting
	cmp	r0, #0
	beq	.L2207
	b	.L2208
.L2201:
	cmn	r1, #568
	movne	r1, #0
	moveq	r1, #1
	orrs	r3, ip, r1
	bne	.L2208
	mov	r1, #1
	ldr	r0, [r0, #2368]
	bl	BsGet
	b	.L2207
.L2202:
	add	r1, r1, #568
	bl	HEVC_Sei_Mastering_Display_Colour_Volume
	cmp	r0, #0
	beq	.L2207
	b	.L2208
.L2203:
	add	r1, r1, #128
	bl	HEVC_Sei_Color_Remapping_Info
	cmp	r0, #0
	beq	.L2207
	b	.L2208
.L2204:
	add	r1, r1, #612
	bl	HEVC_Sei_Content_Light_Level_Information
	cmp	r0, #0
	beq	.L2207
	b	.L2208
.L2186:
	cmp	r6, #0
	movne	r5, #0
	beq	.L2207
.L2210:
	add	r5, r5, #1
	mov	r1, #8
	ldr	r0, [r4, #2368]
	bl	BsGet
	cmp	r5, r6
	bne	.L2210
	b	.L2207
.L2229:
	.align	2
.L2228:
	.word	.LC233
	UNWIND(.fnend)
	.size	HEVC_Sei_Payload, .-HEVC_Sei_Payload
	.align	2
	.global	HEVC_SeiMessage
	.type	HEVC_SeiMessage, %function
HEVC_SeiMessage:
	UNWIND(.fnstart)
	@ args = 0, pretend = 0, frame = 0
	@ frame_needed = 1, uses_anonymous_args = 0
	UNWIND(.movsp ip)
	mov	ip, sp
	stmfd	sp!, {r4, r5, r6, r7, r8, r9, fp, ip, lr, pc}
	UNWIND(.pad #4)
	UNWIND(.save {r4, r5, r6, r7, r8, r9, fp, ip, lr})
	UNWIND(.setfp fp, ip, #-4)
	sub	fp, ip, #4
	UNWIND(.pad #8)
	sub	sp, sp, #8
	mov	r5, #0
	mov	r4, r0
	mov	r6, r1
	mov	r7, r2
	ldr	r0, [r0, #2368]
	b	.L2231
.L2233:
	bl	BsSkip
	ldr	r0, [r4, #2368]
	add	r5, r5, #255
	ldr	r3, [r0, #24]
	ldr	r2, [r0, #16]
	add	r1, r3, #8
	cmp	r1, r2, asl #3
	bhi	.L2239
.L2231:
	mov	r1, #8
	bl	BsShow
	mov	r1, #8
	cmp	r0, #255
	ldr	r0, [r4, #2368]
	beq	.L2233
	bl	BsGet
	mov	r8, #0
	mov	r9, r0
	ldr	r0, [r4, #2368]
	b	.L2234
.L2235:
	bl	BsSkip
	ldr	r0, [r4, #2368]
	add	r8, r8, #255
	ldr	r3, [r0, #24]
	ldr	r2, [r0, #16]
	add	r1, r3, #8
	cmp	r1, r2, asl #3
	bhi	.L2240
.L2234:
	mov	r1, #8
	bl	BsShow
	mov	r1, #8
	cmp	r0, #255
	ldr	r0, [r4, #2368]
	beq	.L2235
	bl	BsGet
	add	r3, r9, r5
	mov	r2, r7
	mov	r1, r6
	add	r8, r0, r8
	mov	r0, r4
	str	r8, [sp]
	bl	HEVC_Sei_Payload
	cmp	r0, #0
	bne	.L2241
.L2232:
	sub	sp, fp, #36
	ldmfd	sp, {r4, r5, r6, r7, r8, r9, fp, sp, pc}
.L2239:
	str	r2, [sp]
	mov	r0, #1
	movw	r2, #5069
	ldr	r1, .L2242
	bl	dprint_vfmw
	mvn	r0, #0
	sub	sp, fp, #36
	ldmfd	sp, {r4, r5, r6, r7, r8, r9, fp, sp, pc}
.L2240:
	str	r2, [sp]
	mov	r0, #1
	movw	r2, #5090
	ldr	r1, .L2242
	bl	dprint_vfmw
	mvn	r0, #0
	sub	sp, fp, #36
	ldmfd	sp, {r4, r5, r6, r7, r8, r9, fp, sp, pc}
.L2241:
	ldr	r1, .L2242+4
	mov	r0, #1
	bl	dprint_vfmw
	mvn	r0, #0
	b	.L2232
.L2243:
	.align	2
.L2242:
	.word	.LC234
	.word	.LC235
	UNWIND(.fnend)
	.size	HEVC_SeiMessage, .-HEVC_SeiMessage
	.align	2
	.global	HEVC_DecSEI
	.type	HEVC_DecSEI, %function
HEVC_DecSEI:
	UNWIND(.fnstart)
	@ args = 0, pretend = 0, frame = 0
	@ frame_needed = 1, uses_anonymous_args = 0
	UNWIND(.movsp ip)
	mov	ip, sp
	stmfd	sp!, {r4, r5, r6, r7, fp, ip, lr, pc}
	UNWIND(.pad #4)
	UNWIND(.save {r4, r5, r6, r7, fp, ip, lr})
	UNWIND(.setfp fp, ip, #-4)
	sub	fp, ip, #4
